(dp1
I24578
VJeff Womack
p2
sI24584
VGeorge Wonsley
p3
sI24585
VNathan Wonsley
p4
sI24586
VOtis Wonsley
p5
sI14
VRabih Abdullah
p6
sI24591
VCierre Wood
p7
sI18
VWalter Abercrombie
p8
sI8214
VEarnest Graham
p9
sI8218
VJay Graham
p10
sI8229
VRay Graham
p11
sI8230
VRoger Graham
p12
sI8231
VScottie Graham
p13
sI24616
VDanny Woodhead
p14
sI48
VMike Adamle
p15
sI8
VKarim Abdul-Jabbar
p16
sI24629
VCarl Woods
p17
sI20489
VRod Smart
p18
sI24632
VDon Woods
p19
sI8249
VNorm Granger
p20
sI58
VCurtis Adams
p21
sI24636
VIckey Woods
p22
sI61
VDavid Adams
p23
sI66
VGeorge Adams
p24
sI8259
VCorey Grant
p25
sI24653
VKeith Woodside
p26
sI8277
VRupert Grant
p27
sI8278
VRyan Grant
p28
sI16472
VGeorge Nock
p29
sI24665
VButch Woolfolk
p30
sI24675
VBarry Word
p31
sI108
VJoseph Addai
p32
sI8302
VCyrus Gray
p33
sI111
VBralon Addison
p34
sI24688
VTim Worley
p35
sI17769
VLarry Poole
p36
sI8312
VJonas Gray
p37
sI8320
VOscar Gray
p38
sI136
VTommie Agee
p39
sI24717
VDana Wright
p40
sI24718
VDwayne Wright
p41
sI8338
VAaron Green
p42
sI8339
VAhman Green
p43
sI8341
VAlex Green
p44
sI8343
VArthur Green
p45
sI8346
VBoyce Green
p46
sI24732
VJason Wright
p47
sI160
VJay Ajayi
p48
sI24739
VJohnnie Wright
p49
sI16548
VJerious Norwood
p50
sI8358
VDavid Green
p51
sI8359
VDavid Green
p52
sI16557
VDon Nottingham 
p53
sI8367
VGaston Green
p54
sI8368
VHarold Green
p55
sI20510
VAlfonso Smith
p56
sI195
VJerry Aldridge 
p57
sI8390
VMark Green
p58
sI16919
VWes Ours
p59
sI15052
VRondell Mealey
p60
sI8394
VMike Green
p61
sI204
VAlvester Alexander
p62
sI8397
VRobert Green
p63
sI207
VCharles Alexander
p64
sI210
VDan Alexander
p65
sI8406
VTony Green
p66
sI24796
VDeShawn Wynn
p67
sI8414
VWoody Green
p68
sI223
VJeff Alexander
p69
sI8417
VBenJarvus Green-Ellis
p70
sI24614
VTom Woodeshick
p71
sI238
VRobert Alexander
p72
sI242
VShaun Alexander 
p73
sI8435
VScott Greene
p74
sI8436
VShonn Greene
p75
sI245
VVincent Alexander
p76
sI4137
VCedric Cobbs
p77
sI248
VRich Alexis
p78
sI249
VTed Alflen
p79
sI4139
VPatrick Cobbs
p80
sI263
VCharles Ali
p81
sI269
VAnthony Allen
p82
sI271
VArmando Allen
p83
sI275
VBrian Allen
p84
sI8469
VBen Gregory
p85
sI284
VDavid Allen
p86
sI24865
VAlbert Young
p87
sI8487
VBob Gresham
p88
sI296
VGary Allen
p89
sI298
VGerry Allen
p90
sI8491
VMarion Grice
p91
sI300
VGreg Allen
p92
sI8493
VMarrio Grier
p93
sI305
VJames Allen
p94
sI10
VAmeer Abdullah
p95
sI8499
VArchie Griffin
p96
sI309
VJavorius Allen
p97
sI21897
VStepfan Taylor
p98
sI8512
VJohn Griffin
p99
sI8513
VKeith Griffin
p100
sI323
VMarcus Allen
p101
sI324
VMarvin Allen
p102
sI8518
VQuentin Griffin
p103
sI16714
VHenry Odom
p104
sI8524
VStephen Griffin
p105
sI8525
VSteve Griffin
p106
sI335
VTerry Allen
p107
sI8248
VHoyle Granger
p108
sI8531
VHoward Griffith
p109
sI24916
VSelvin Young
p110
sI345
VJim Allison
p111
sI16736
VChris Ogbonnaya
p112
sI12014
VKenton Keith
p113
sI8547
VNic Grigsby
p114
sI362
VMike Alstott
p115
sI24947
VKen Zachary
p116
sI8565
VClif Groce
p117
sI8567
VRon Groce
p118
sI8570
VChris Gronkowski
p119
sI16769
VChristian Okoye
p120
sI394
VGeorge Amundson
p121
sI397
VKimble Anders
p122
sI16782
VBill Olds
p123
sI403
VAlfred Anderson 
p124
sI404
VAndre' Anderson 
p125
sI405
VAnthony Anderson 
p126
sI16794
VBranden Oliver
p127
sI16797
VDarryl Oliver
p128
sI24990
VZach Zenner
p129
sI16799
VGreg Oliver
p130
sI416
VBobby Anderson 
p131
sI24996
VAmos Zereoue
p132
sI421
VC.J. Anderson
p133
sI16809
VWinslow Oliver
p134
sI16810
VBrock Olivo
p135
sI430
VDamien Anderson 
p136
sI438
VDonny Anderson 
p137
sI25016
VMickey Zofko
p138
sI7107
VHerman Fontenot
p139
sI8640
VMike Guman
p140
sI449
VGary Anderson 
p141
sI454
VJamal Anderson 
p142
sI16839
VXavier Omon
p143
sI456
VJason Anderson 
p144
sI8654
VMichael Gunter
p145
sI8657
VTodd Gurley
p146
sI16854
VJoe Orduna
p147
sI471
VMax Anderson 
p148
sI473
VMike Anderson 
p149
sI474
VNeal Anderson 
p150
sI476
VOttis Anderson 
p151
sI483
VRickey Anderson 
p152
sI16880
VDave Osborn 
p153
sI497
VVickey Ray Anderson 
p154
sI509
VAntonio Andrews
p155
sI8705
VMichael Haddix
p156
sI16907
VJim Otis
p157
sI8727
VMike Hagen
p158
sI16924
VDavid Overstreet
p159
sI16926
VDon Overton
p160
sI555
VTyrone Anthony
p161
sI16952
VMontell Owens
p162
sI17844
VRoosevelt Potts
p163
sI16959
VSteve Owens
p164
sI20735
VPaul Smith
p165
sI16966
VKen Oxendine
p166
sI585
VMike Archie
p167
sI8780
VAhmard Hall
p168
sI8784
VAndre Hall
p169
sI1465
VLe'Veon Bell
p170
sI609
VAdger Armstrong 
p171
sI8805
VDino Hall
p172
sI16998
VTony Paige
p173
sI17001
VCarl Painter
p174
sI624
VOtis Armstrong 
p175
sI8835
VTim Hall
p176
sI17031
VPaul Palmer
p177
sI648
VJ.J. Arrington
p178
sI1474
VNick Bell
p179
sI656
VCameron Artis-Payne
p180
sI24845
VT.J. Yeldon
p181
sI17045
VMike Panepinto
p182
sI664
VWillie Asbury
p183
sI8858
VC.J. Ham
p184
sI8865
VTroy Hambrick
p185
sI677
VJosh Ashton
p186
sI682
VJoe Aska
p187
sI17068
VKaulana Park
p188
sI1480
VTatum Bell
p189
sI8883
VJustin Hamilton
p190
sI17078
VChris Parker
p191
sI8887
VLynell Hamilton
p192
sI17082
VDe'Mond Parker
p193
sI702
VDave Atkins
p194
sI17088
VFreddie Parker
p195
sI712
VSteve Atkins
p196
sI716
VGeorge Atkinson
p197
sI8910
VBobby Hammond 
p198
sI21028
VRon Springs
p199
sI16504
VBen Norman
p200
sI17106
VRobert Parker
p201
sI8921
VDave Hampton 
p202
sI8923
VJewel Hampton 
p203
sI17116
VWillie Parker
p204
sI8925
VLorenzo Hampton 
p205
sI8926
VRodney Hampton 
p206
sI738
VMike Augustyniak
p207
sI744
VCliff Austin
p208
sI17132
VBernie Parmalee 
p209
sI17133
VJalen Parmele
p210
sI760
VDarnell Autry
p211
sI17147
VRick Parros
p212
sI17149
VJosh Parry
p213
sI772
VJohn Avery
p214
sI774
VSteve Avery
p215
sI8970
VRussell Hansbrough
p216
sI8972
VBruce Hansen
p217
sI782
VObafemi Ayanbadejo
p218
sI17183
VLloyd Pate
p219
sI17187
VGreg Paterra
p220
sI9008
VBuddy Hardeman
p221
sI17201
VWayne Patrick
p222
sI823
VRick Badanjek
p223
sI9017
VMontario Hardesty
p224
sI9027
VAndre Hardy 
p225
sI845
VClarence Bailey
p226
sI17231
VRicky Patton
p227
sI9047
VRobert Hardy 
p228
sI858
VJohnny Bailey
p229
sI861
VMark Bailey
p230
sI9059
VJimmy Hargrove
p231
sI869
VTeddy Bailey
p232
sI871
VTom Bailey
p233
sI9064
VSteve Harkey
p234
sI9069
VClarence Harmon 
p235
sI9070
VDerrick Harmon 
p236
sI17266
VEddie Payton
p237
sI17267
VJarrett Payton
p238
sI20488
VIan Smart
p239
sI17273
VElvis Peacock
p240
sI890
VEdwin Baker
p241
sI17275
VIsaiah Pead
p242
sI17283
VAlvin Pearman
p243
sI9094
VJack Harper
p244
sI9095
VJamie Harper
p245
sI9104
VRoland Harper
p246
sI17297
VPreston Pearson
p247
sI23363
VTeddy Washington 
p248
sI9109
VCharlie Harraway
p249
sI920
VTony Baker
p250
sI921
VTony Baker
p251
sI9115
VSam Harrell
p252
sI9116
VWillard Harrell
p253
sI9120
VLaRue Harrington
p254
sI9121
VPerry Harrington
p255
sI17314
VCedric Peerman
p256
sI9124
VAlonzo Harris
p257
sI17318
VErric Pegram
p258
sI9131
VArlen Harris
p259
sI9135
VBilly Harris
p260
sI948
VRandy Baldwin
p261
sI17355
VGeorge Peoples
p262
sI17336
VJairo Penaranda
p263
sI955
VLance Ball
p264
sI9150
VDarryl Harris
p265
sI959
VMontee Ball
p266
sI9154
VDerrick Harris
p267
sI17349
VElijhaa Penny
p268
sI9159
VDuJuan Harris
p269
sI9163
VElroy Harris
p270
sI9167
VFranco Harris
p271
sI9168
VFrank Harris
p272
sI977
VPete Banaszak
p273
sI17913
VChris Pressley
p274
sI17370
VSamaje Perine
p275
sI17375
VBruce Perkins 
p276
sI9184
VJoey Harris
p277
sI997
VChuck Banks
p278
sI998
VEstes Banks
p279
sI9191
VJosh Harris
p280
sI9192
VKay-Jay Harris
p281
sI9198
VLeroy Harris
p282
sI1007
VTavian Banks
p283
sI17400
VLonnie Perrin
p284
sI17403
VBruce Perry 
p285
sI17404
VChris Perry 
p286
sI1022
VJoe Banyard
p287
sI17414
VLeon Perry 
p288
sI1032
VKantroy Barber
p289
sI1034
VMarion Barber
p290
sI1035
VMarion Barber
p291
sI9229
VRudy Harris
p292
sI17422
VSenorise Perry 
p293
sI1040
VPeyton Barber
p294
sI9233
VSteve Harris
p295
sI9235
VTim Harris
p296
sI17428
VWilmont Perry 
p297
sI1045
VTiki Barber
p298
sI10918
VPo James
p299
sI1049
VChris Barclay
p300
sI9256
VGlynn Harrison
p301
sI9259
VJerome Harrison
p302
sI9260
VJim Harrison
p303
sI1075
VKevan Barlow
p304
sI17462
VAdrian Peterson
p305
sI17463
VAdrian Peterson
p306
sI1081
VKenjon Barner
p307
sI9285
VHarold Hart 
p308
sI9293
VMike Hart 
p309
sI1103
VLarry Barnes
p310
sI1106
VMarlon Barnes
p311
sI9323
VFrank Harvey
p312
sI9327
VJohn Harvey
p313
sI17530
VBobby Phillips
p314
sI9347
VWilbert Haslip
p315
sI1157
VDave Barrett
p316
sI17547
VLawrence Phillips
p317
sI1170
VTom Barrington
p318
sI17556
VRod Phillips
p319
sI17564
VDino Philyaw
p320
sI1185
VSteve Bartalo
p321
sI17571
VBrian Piccolo
p322
sI9382
VStanley Havili
p323
sI7027
VTerrell Fletcher
p324
sI17589
VDanny Pierce
p325
sI9398
VFrank Hawkins
p326
sI1221
VMichael Basnight
p327
sI17608
VBert Piggott
p328
sI9420
VAaron Hayden
p329
sI9424
VLeo Hayden
p330
sI1239
VBaron Batch
p331
sI17625
VCyril Pinder
p332
sI17630
VAllen Pinkett
p333
sI1248
VMario Bates
p334
sI1249
VMichael Bates
p335
sI17637
VArtose Pinner
p336
sI17644
VWoodie Pippens
p337
sI9454
VWendell Hayes
p338
sI1265
VJackie Battle
p339
sI9460
VGary Hayman
p340
sI9462
VJarryd Hayne
p341
sI17655
VAntonio Pittman
p342
sI9464
VAlex Haynes
p343
sI17657
VCharlie Pittman
p344
sI1275
VBobby Batton
p345
sI1278
VHank Bauer
p346
sI9475
VVerron Haynes
p347
sI9772
VEddie Hicks
p348
sI9483
VAl Haywood
p349
sI1301
VBrad Baxter
p350
sI9501
VHerman Heard
p351
sI1310
VRick Bayless
p352
sI9506
VGarrison Hearst
p353
sI9507
VDon Heater
p354
sI9508
VLarry Heater
p355
sI9510
VClayton Heath
p356
sI16604
VVic Nyvall
p357
sI9522
VVaughn Hebron
p358
sI17715
VEd Podolak
p359
sI1336
VBubba Bean
p360
sI9530
VJohnny Hector
p361
sI17730
VLousaka Polite
p362
sI17732
VChris Polk
p363
sI17741
VFrank Pollard
p364
sI9552
VLakei Heimuli
p365
sI9577
VRoy Helu
p366
sI17771
VNathan Poole
p367
sI17774
VShelley Poole
p368
sI17776
VTauren Poole
p369
sI9588
VDe'Angelo Henderson
p370
sI1404
VEarl Beecham
p371
sI17790
VP.J. Pope
p372
sI9599
VKeith Henderson
p373
sI17792
VTroymaine Pope
p374
sI17806
VKerry Porter
p375
sI17809
VQuinn Porter
p376
sI17811
VRicky Porter
p377
sI17988
VJoe Profit
p378
sI9628
VBrian Henesey
p379
sI17821
VClinton Portis
p380
sI9634
VJune Henley
p381
sI17829
VDickie Post
p382
sI1451
VGordon Bell
p383
sI1452
VGreg Bell
p384
sI1457
VJoique Bell
p385
sI1459
VKahlil Bell
p386
sI9652
VChris Henry 
p387
sI9653
VDerrick Henry 
p388
sI9657
VLeonard Henry 
p389
sI1472
VMike Bell
p390
sI9665
VTravis Henry 
p391
sI17858
VBilal Powell
p392
sI1475
VRichard Bell
p393
sI1476
VRick Bell
p394
sI1477
VRicky Bell
p395
sI9671
VChamp Henson
p396
sI17864
VDarnell Powell
p397
sI17867
VJeff Powell
p398
sI1485
VWilliam Bell
p399
sI17878
VSteve Powell
p400
sI17883
VWilliam Powell
p401
sI1502
VHorace Belton
p402
sI1503
VWillie Belton
p403
sI17888
VRicky Powers
p404
sI22096
VMike Thomas
p405
sI1507
VCarey Bender
p406
sI1509
VWes Bender
p407
sI1521
VRyan Benjamin
p408
sI17906
VTravis Prentice
p409
sI1523
VTony Benjamin
p410
sI9719
VDan Herron
p411
sI9721
VMack Herron
p412
sI9722
VNoah Herron
p413
sI1531
VBrandon Bennett
p414
sI17917
VDave Preston
p415
sI1537
VDonnell Bennett
p416
sI1540
VEdgar Bennett
p417
sI9733
VJacob Hester
p418
sI1545
VMichael Bennett
p419
sI1551
VSean Bennett
p420
sI1555
VWoody Bennett
p421
sI1557
VCedric Benson
p422
sI9750
VCraig Heyward
p423
sI17947
VSammy Price
p424
sI9756
VBo Hickey
p425
sI1567
VAlbert Bentley
p426
sI17959
VJames Primus
p427
sI9771
VDwone Hicks
p428
sI17964
VMike Pringle
p429
sI9781
VMaurice Hicks
p430
sI9783
VMichael Hicks
p431
sI17976
VBilly Pritchett
p432
sI9786
VSkip Hicks
p433
sI1603
VGiovani Bernard
p434
sI1604
VKarl Bernard
p435
sI17995
VC.J. Prosise
p436
sI9804
VMark Higgs
p437
sI9807
VAlonzo Highsmith
p438
sI1616
VRick Berns
p439
sI9809
VDon Highsmith
p440
sI9812
VTim Hightower
p441
sI18006
VGreg Pruitt
p442
sI18010
VMike Pruitt
p443
sI18013
VBarry Pryor
p444
sI1630
VDamien Berry 
p445
sI9824
VBrian Hill
p446
sI9825
VBronson Hill
p447
sI9827
VCalvin Hill
p448
sI9840
VEddie Hill
p449
sI1650
VJim Bertelsen
p450
sI9845
VGreg Hill
p451
sI1663
VArt Best
p452
sI9856
VJeremy Hill
p453
sI1665
VJahvid Best
p454
sI1677
VJames Betterson
p455
sI1679
VJerome Bettis
p456
sI9872
VMadre Hill
p457
sI9875
VMichael Hill
p458
sI1687
VDwight Beverly
p459
sI18077
VFrank Quayle
p460
sI1694
VFrank Bianchini
p461
sI1698
VKapri Bibbs
p462
sI1700
VErik Bickerstaff
p463
sI1711
VEric Bieniemy
p464
sI9904
VDalton Hilliard
p465
sI9908
VLex Hilliard
p466
sI9910
VPeyton Hillis
p467
sI9912
VRonnie Hillman
p468
sI24062
VEddie Williams
p469
sI8241
VKen Grandberry 
p470
sI9944
VI.M. Hipp
p471
sI18152
VBobby Rainey
p472
sI18153
VChris Rainey
p473
sI9964
VLeroy Hoard
p474
sI1780
VHank Bjorklund
p475
sI1788
VJames Black
p476
sI4394
VLarry Conjar
p477
sI9857
VJerry Hill
p478
sI24877
VCharley Young
p479
sI22147
VAnthony Thompson
p480
sI10005
VPaul Hofer
p481
sI1816
VAlois Blackwell
p482
sI18206
VLouis Rankin
p483
sI10021
VMike Hogan 
p484
sI10024
VMerril Hoge
p485
sI1833
VMichael Blair
p486
sI1842
VRicky Blake
p487
sI18232
VTom Rathman
p488
sI10042
VRobert Holcombe
p489
sI1857
VSid Blanks
p490
sI1862
VDerrick Blaylock
p491
sI10055
VJohn Holifield
p492
sI18248
VThomas Rawls
p493
sI1866
VCurtis Bledsoe
p494
sI1873
VRocky Bleier
p495
sI1877
VDennis Bligen
p496
sI10076
VMarcus Holliday
p497
sI1885
VAlvin Blount
p498
sI10082
VTony Hollings
p499
sI1894
VAlfred Blue
p500
sI18282
VTommy Reamon
p501
sI18286
VDarrin Reaves
p502
sI1903
VRonnie Blye
p503
sI18289
VWillard Reaves
p504
sI1907
VMack Boatner
p505
sI9338
VAllen Harvin
p506
sI18297
VRon Rector
p507
sI18299
VSilas Redd
p508
sI18301
VBarry Redden
p509
sI10110
VWalter Holman
p510
sI1921
VTony Boddie
p511
sI10118
VDarick Holmes
p512
sI18312
VIsaac Redman
p513
sI10123
VJack Holmes
p514
sI18317
VJ.R. Redmond
p515
sI18321
VJarvis Redwine
p516
sI11246
VDuke Johnson
p517
sI10135
VPriest Holmes
p518
sI10136
VRobert Holmes
p519
sI18329
VTravis Reece
p520
sI5786
VGene Donaldson
p521
sI1954
VBrandon Bolden
p522
sI1963
VBrock Bolen
p523
sI1693
VTim Biakabutuka
p524
sI18358
VMike Reed
p525
sI10167
VElijah Hood
p526
sI1976
VAndy Bolton
p527
sI24906
VRickey Young
p528
sI18367
VTony Reed
p529
sI10176
VJim Hooks
p530
sI10177
VRoland Hooks
p531
sI1994
VGlen Bonner
p532
sI10189
VAndy Hopkins
p533
sI1999
VDevontae Booker
p534
sI2001
VLorenzo Booker
p535
sI10194
VRoy Hopkins
p536
sI18391
VDan Reeves
p537
sI2011
VGreg Boone 
p538
sI2020
VEmerson Boozer
p539
sI18417
VAlan Reid
p540
sI18418
VAndy Reid
p541
sI2056
VJames Bostic
p542
sI10260
VCedric Houston
p543
sI2076
VLee Bouggess
p544
sI2077
VKevin Bouie
p545
sI10278
VBobby Howard
p546
sI10282
VChris Howard
p547
sI10295
VJordan Howard
p548
sI2110
VR.J. Bowers
p549
sI2115
VLarry Bowie
p550
sI10311
VWilliam Howard
p551
sI18506
VChase Reynolds
p552
sI7182
VGene Foster 
p553
sI18518
VJoffrey Reynolds
p554
sI2141
VCory Boyd
p555
sI18535
VErrict Rhett
p556
sI18540
VDominic Rhodes
p557
sI10354
VMarv Hubbard
p558
sI22440
VKeith Toston
p559
sI10357
VBrad Hubbert
p560
sI2168
VGreg Boykin
p561
sI8554
VJonathan Grimes
p562
sI10367
VBob Hudson
p563
sI18567
VRay Rice
p564
sI18575
VJalen Richard
p565
sI2196
VAllen Bradford
p566
sI2209
VDanny Bradley
p567
sI2213
VFreddie Bradley
p568
sI10406
VKareem Huggins
p569
sI18602
VDaryl Richardson 
p570
sI2224
VAhmad Bradshaw
p571
sI18617
VMike Richardson 
p572
sI10430
VRobert Hughes
p573
sI18627
VTerry Richardson 
p574
sI18630
VTrent Richardson 
p575
sI10440
VMike Hull
p576
sI2263
VJamaal Branch
p577
sI18648
VLawrence Ricks
p578
sI2265
VReggie Branch
p579
sI18653
VRobb Riddick
p580
sI18654
VTheo Riddick
p581
sI18662
VPreston Ridlehuber
p582
sI18664
VStevan Ridley
p583
sI10479
VAkeem Hunt
p584
sI10481
VBob Hunt
p585
sI2291
VJason Bratton
p586
sI18676
VJohn Riggins
p587
sI18679
VGerald Riggs
p588
sI2301
VJim Braxton
p589
sI10496
VKareem Hunt
p590
sI22230
VWoody Thompson
p591
sI10503
VTony Hunt
p592
sI10504
VAl Hunter
p593
sI10508
VDameon Hunter
p594
sI10513
VEarnest Hunter
p595
sI10514
VEddie Hunter
p596
sI10515
VHerman Hunter
p597
sI10516
VIvy Joe Hunter
p598
sI18711
VBill Ring
p599
sI18712
VJavon Ringer
p600
sI2330
VMatt Breida
p601
sI10524
VKendall Hunter
p602
sI10534
VTony Hunter
p603
sI10540
VRichard Huntley
p604
sI2352
VChris Brewer
p605
sI2353
VDewell Brewer
p606
sI18744
VNate Rivers
p607
sI18746
VReggie Rivers
p608
sI18747
VRon Rivers
p609
sI18749
VJack Rizzo
p610
sI10570
VAnthony Hutchison
p611
sI2394
VLeon Bright
p612
sI19514
VBroderick Sargent
p613
sI10594
VHenry Hynoski
p614
sI2404
VCurtis Brinkley
p615
sI2409
VLarry Brinson
p616
sI24980
VRay Zellars
p617
sI16789
VMike Oliphant
p618
sI18818
VJamal Robertson
p619
sI10635
VMark Ingram
p620
sI10642
VDou Innocent
p621
sI2456
VJohn Brockington 
p622
sI10663
VSedrick Irvin
p623
sI2474
VJason Brookins
p624
sI18866
VGreg Robinson
p625
sI11337
VLarry Johnson
p626
sI10687
VRickey Isom
p627
sI18880
VJosh Robinson
p628
sI2497
VJames Brooks
p629
sI18884
VKhiry Robinson
p630
sI18886
VLarry Robinson
p631
sI10697
VEddie Lee Ivery
p632
sI10699
VJohn Ivlow
p633
sI2508
VReggie Brooks
p634
sI10701
VChris Ivory
p635
sI10702
VHorace Ivory
p636
sI2514
VTony Brooks
p637
sI18900
VPaul Robinson
p638
sI10722
VAndrew Jackson
p639
sI2533
VA.B. Brown
p640
sI18919
VTerry Robiskie
p641
sI2536
VAaron Brown
p642
sI10730
VBilly Jackson
p643
sI10731
VBo Jackson
p644
sI2540
VAndre Brown
p645
sI10738
VBrandon Jackson
p646
sI17270
VWalter Payton
p647
sI10742
VCedric Jackson
p648
sI2556
VBryce Brown
p649
sI10753
VDarius Jackson
p650
sI18946
VJeff Rodenberger
p651
sI22273
VSteve Thurlow
p652
sI10760
VDon Jackson
p653
sI10761
VEarnest Jackson
p654
sI18955
VJacquizz Rodgers 
p655
sI2574
VChris Brown
p656
sI10768
VFred Jackson
p657
sI18962
VWillie Rodgers 
p658
sI2585
VCurtis Brown
p659
sI10778
VJames Jackson
p660
sI10780
VJazz Jackson
p661
sI2590
VDante Brown
p662
sI2597
VDee Brown
p663
sI2601
VDerek Brown
p664
sI18986
VCharlie Rogers
p665
sI2605
VDonald Brown
p666
sI18995
VGeorge Rogers
p667
sI10804
VLouis Jackson
p668
sI19000
VJimmy Rogers
p669
sI10811
VMarlion Jackson
p670
sI2622
VGary Brown
p671
sI2627
VGordon Brown
p672
sI19012
VSteve Rogers
p673
sI10821
VRandy Jackson
p674
sI10822
VRashawn Jackson
p675
sI10823
VRay Jackson
p676
sI2632
VIvory Lee Brown
p677
sI19029
VJohnny Roland
p678
sI10839
VSteven Jackson
p679
sI2657
VKen Brown
p680
sI10855
VWilbur Jackson
p681
sI2667
VLarry Brown
p682
sI10861
VBrandon Jacobs
p683
sI18195
VJoseph Randle 
p684
sI2676
VMack Brown
p685
sI2677
VMalcolm Brown 
p686
sI9074
VKevin Harmon 
p687
sI10892
VArrike James
p688
sI2707
VReggie Brown
p689
sI10902
VEdgerrin James
p690
sI10904
VGarry James
p691
sI10906
VJavarris James
p692
sI10912
VLaMichael James
p693
sI10915
VMike James 
p694
sI19108
VAlvin Ross
p695
sI19110
VCory Ross
p696
sI19114
VDerrick Ross
p697
sI19115
VDominique Ross
p698
sI2739
VTed Brown
p699
sI19124
VOliver Ross
p700
sI2741
VTheotis Brown
p701
sI2744
VTimmy Brown
p702
sI2749
VTom Brown
p703
sI19138
VPete Roth
p704
sI2763
VJim Browne
p705
sI19152
VJames Rouse
p706
sI19156
VLee Rouson
p707
sI10984
VGarland Jean-Batiste
p708
sI2799
VJim Brumfield
p709
sI19187
VEvan Royster
p710
sI19188
VMazio Royster
p711
sI19191
VMike Rozier
p712
sI2810
VBob Brunet
p713
sI2817
VMike Brunson
p714
sI11013
VTony Jeffery
p715
sI2835
VBeno Bryant
p716
sI2841
VCharlie Bryant
p717
sI2845
VCullen Bryant
p718
sI11040
VEd Jenkins
p719
sI2855
VKelvin Bryant
p720
sI19244
VJ.D. Runnels
p721
sI11056
VKen Jenkins
p722
sI11058
VKeyvan Jenkins
p723
sI2869
VShawn Bryson
p724
sI19255
VTyrone Rush
p725
sI11069
VRonney Jenkins
p726
sI11075
VChris Jennings
p727
sI19270
VBooker Russell
p728
sI19278
VGary Russell
p729
sI2895
VCorrell Buckhalter
p730
sI11088
VRashad Jennings
p731
sI11090
VStanford Jennings
p732
sI2899
VEldra Buckley
p733
sI19284
VLeonard Russell
p734
sI11110
VTravis Jervey 
p735
sI11113
VTim Jessie
p736
sI3219
VCarl Byrum
p737
sI2937
VNorm Bulaich
p738
sI2941
VRonnie Bull
p739
sI18647
VHarold Ricks
p740
sI11135
VJim Jodat
p741
sI11136
VBilly Joe
p742
sI22339
VZurlon Tipton
p743
sI11158
VAndy Johnson 
p744
sI11159
VAnthony Johnson 
p745
sI11174
VBill Johnson 
p746
sI19372
VBrandon Saine
p747
sI19376
VRashaan Salaam 
p748
sI3000
VJoe Burke
p749
sI5962
VStacey Driver
p750
sI3009
VRex Burkhead
p751
sI3010
VBrandon Burks
p752
sI11208
VChris Johnson 
p753
sI19408
VB.J. Sams
p754
sI3026
VBobby Burnett 
p755
sI19417
VChris Samuels
p756
sI12794
VRon Lamb
p757
sI11230
VDavid Johnson
p758
sI11237
VDennis Johnson
p759
sI3048
VJason Burns
p760
sI3049
VJoe Burns
p761
sI3052
VLeon Burns
p762
sI19437
VBarry Sanders 
p763
sI3054
VRobert Burns
p764
sI15923
VWayne Mosley
p765
sI19444
VChuck Sanders 
p766
sI11258
VEssex Johnson 
p767
sI11264
VGartrell Johnson
p768
sI3080
VTony Burse
p769
sI19465
VThomas Sanders 
p770
sI19467
VReggie Sanderson 
p771
sI11282
VJ.J. Johnson
p772
sI11288
VJames Johnson
p773
sI19486
VBishop Sankey
p774
sI11296
VJeremiah Johnson
p775
sI11297
VJerome Johnson
p776
sI3113
VMichael Bush
p777
sI3116
VReggie Bush
p778
sI19504
VCecil Sapp
p779
sI11314
VJohnny Johnson
p780
sI3127
VDexter Bussey
p781
sI11322
VKen Johnson
p782
sI11327
VKermit Johnson
p783
sI19520
VMartin Sartin
p784
sI3138
VBill Butler
p785
sI523
VWilliam Andrews
p786
sI11333
VKyle Johnson
p787
sI3143
VCannonball Butler
p788
sI19529
VBrian Satterfield
p789
sI1890
VLeGarrette Blount
p790
sI11344
VLeon Johnson
p791
sI11346
VLeShon Johnson
p792
sI3160
VJerry Butler
p793
sI19553
VDantrell Savage
p794
sI5990
VDoug DuBose
p795
sI3176
VTerry Butler
p796
sI3182
VMarion Butts
p797
sI11376
VNate Johnson
p798
sI3186
VButler By'not'e
p799
sI19574
VGale Sayers
p800
sI19575
VRon Sayers
p801
sI11385
VPete Johnson
p802
sI11387
VPreston Johnson
p803
sI11388
VQuinn Johnson
p804
sI3197
VEarnest Byner
p805
sI3199
VKenny Bynum
p806
sI11397
VRich Johnson
p807
sI19595
VSam Scarber
p808
sI11405
VRon Johnson
p809
sI11411
VRudi Johnson
p810
sI11415
VSammy Johnson
p811
sI3227
VTravaris Cadet
p812
sI11425
VStorm Johnson
p813
sI3247
VLynn Cain
p814
sI11440
VTracy Johnson
p815
sI11450
VUndra Johnson
p816
sI8995
VByron Hanspard
p817
sI3265
VScott Caldwell
p818
sI3269
VBrian Calhoun
p819
sI3270
VDon Calhoun
p820
sI11463
VDaryl Johnston
p821
sI3274
VRick Calhoun
p822
sI11477
VLewis Jolley
p823
sI19671
VOwen Schmitt
p824
sI3289
VKen Callicutt
p825
sI19675
VSteven Schnarr
p826
sI11485
VA.J. Jones
p827
sI11487
VAaron Jones
p828
sI11493
VAndrew Jones 
p829
sI11496
VArrington Jones
p830
sI11503
VBill Jones
p831
sI19704
VLarry Schreiber
p832
sI3324
VEarl Campbell
p833
sI20842
VMatt Snell
p834
sI11523
VCalvin Jones
p835
sI11537
VClint Jones
p836
sI3346
VMike Campbell 
p837
sI19731
VRandy Schultz
p838
sI3351
VSonny Campbell
p839
sI3355
VWoody Campbell
p840
sI3357
VBilly Campfield
p841
sI3363
VLarry Canada
p842
sI3372
VTrung Canidate
p843
sI3373
VSheldon Canley
p844
sI11568
VE.J. Jones
p845
sI19768
VJosh Scobey
p846
sI11580
VFelix Jones
p847
sI19774
VBernard Scott
p848
sI11587
VGeorge Jones
p849
sI11589
VGreg Jones
p850
sI2568
VCharlie Brown
p851
sI3399
VBob Cappadona
p852
sI3401
VJohn Cappelletti
p853
sI11594
VHarry Jones 
p854
sI11597
VHenry Jones
p855
sI11608
VJames Jones
p856
sI3425
VKa'Deem Carey
p857
sI19811
VKevin Scott
p858
sI11622
VJimmie Jones
p859
sI11635
VJulius Jones
p860
sI19828
VRonald Scott
p861
sI11638
VKeith Jones
p862
sI11639
VKeith Jones
p863
sI11643
VKevin Jones
p864
sI11644
VKim Jones
p865
sI11645
VKirk Jones
p866
sI19848
VRob Scribner
p867
sI11664
VMatt Jones
p868
sI3473
VRob Carpenter
p869
sI6042
VChad Dukes
p870
sI3489
VEarl Carr
p871
sI3497
VLydell Carr
p872
sI11705
VSteve Jones
p873
sI11707
VTaiwan Jones
p874
sI11713
VThomas Jones
p875
sI11724
VVictor Jones
p876
sI3533
VPaul Ott Carruth
p877
sI3536
VChris Carson
p878
sI15608
VJoe Montgomery
p879
sI11732
VMaurice Jones-Drew
p880
sI11739
VBuford Jordan
p881
sI3549
VAllen Carter
p882
sI11746
VDonald Jordan
p883
sI11751
VJeff Jordan
p884
sI11752
VJimmy Jordan
p885
sI11755
VLaMont Jordan
p886
sI3565
VDelone Carter
p887
sI3566
VDexter Carter
p888
sI11761
VRandy Jordan
p889
sI11767
VTony Jordan
p890
sI3576
VJoe Carter
p891
sI3580
VKerry Carter
p892
sI11774
VElvis Joseph
p893
sI11775
VJames Joseph
p894
sI11779
VKeith Joseph
p895
sI3592
VRodney Carter
p896
sI11787
VLes Josephson
p897
sI11790
VYonel Jourdain
p898
sI11792
VDelvin Joyce
p899
sI3601
VTony Carter
p900
sI23811
VRussell White
p901
sI11801
VWillie Joyner
p902
sI3610
VRan Carthon
p903
sI3615
VMel Carver
p904
sI11810
VJarmar Julien
p905
sI20029
VHarold Shaw
p906
sI3647
VAveion Cason
p907
sI20039
VSedrick Shaw
p908
sI18360
VOscar Reed
p909
sI3667
VTim Castille
p910
sI20058
VKory Sheets
p911
sI20062
VRashaan Shehee
p912
sI20066
VWillie Shelby
p913
sI11875
VJohn Kamana
p914
sI11877
VAlvin Kamara
p915
sI3688
VJehuu Caulcrick
p916
sI11887
VRick Kane
p917
sI20082
VEric Shelton
p918
sI3713
VFrank Cephous
p919
sI20098
VJohnny Shepherd
p920
sI11909
VDeji Karim
p921
sI18369
VDan Reeder
p922
sI3723
VPat Chaffey
p923
sI20111
VAnthony Sherman
p924
sI20113
VHeath Sherman 
p925
sI3742
VRobert Chancey
p926
sI20132
VPaul Shields
p927
sI3758
VShaun Chapas
p928
sI3760
VDoug Chapman
p929
sI11953
VNapoleon Kaufman 
p930
sI3763
VKory Chapman
p931
sI3772
VJamaal Charles
p932
sI20158
VRoy Shivers
p933
sI3789
VCliff Chatman
p934
sI3790
VJesse Chatman
p935
sI11983
VCurtis Keaton
p936
sI3818
VTony Cherry
p937
sI20206
VDon Shy
p938
sI20207
VLes Shy
p939
sI20213
VJimmy Sidle
p940
sI3831
VJoe Chetti
p941
sI12024
VMark Kellar
p942
sI20236
VVai Sikahema
p943
sI12046
VRobert Kelley 
p944
sI3855
VJohn Chirico
p945
sI3862
VTashard Choice
p946
sI21125
VKen Starch
p947
sI3876
VBob Christian
p948
sI17587
VBernard Pierce
p949
sI12070
VLeroy Kelly
p950
sI4743
VMike Crawford 
p951
sI3888
VRyan Christopherson
p952
sI12104
VVince Kendrick
p953
sI3917
VDarryl Clack
p954
sI14307
VHenry Matthews
p955
sI3925
VRickey Claitt
p956
sI20313
VKen Simonton
p957
sI20321
VChad Simpson
p958
sI3943
VBoobie Clark
p959
sI20331
VNate Simpson
p960
sI20332
VO.J. Simpson
p961
sI7485
VSamkon Gado
p962
sI20337
VBilly Sims
p963
sI20338
VCharles Sims
p964
sI20340
VDavid Sims
p965
sI3957
VDarryl Clark
p966
sI3958
VDerrick Clark
p967
sI20347
VJames Sims
p968
sI3976
VJessie Clark
p969
sI12171
VEric Kettani
p970
sI23874
VRicky Whittle
p971
sI12186
VJon Keyworth
p972
sI666
VFrank Aschenbrenner
p973
sI4001
VSpark Clark
p974
sI15687
VJeff Moore
p975
sI12204
VJim Kiick 
p976
sI24686
VVince Workman
p977
sI20413
VJohn Skibinski 
p978
sI11591
VGreg Jones
p979
sI4035
VJohn Clay
p980
sI19789
VDa'Rel Scott
p981
sI12242
VKeylon Kincade
p982
sI12246
VRandy Kinder
p983
sI4055
VThomas Clayton
p984
sI20446
VSteve Slaton
p985
sI4066
VCorey Clement
p986
sI4073
VVince Clements
p987
sI12269
VBruce King
p988
sI12270
VCarlos King
p989
sI4080
VMichael Clemons
p990
sI4085
VTopper Clemons
p991
sI12290
VHorace King
p992
sI20483
VKiero Small
p993
sI20487
VWendell Smallwood
p994
sI12296
VKenny King
p995
sI4105
VMike Cloud 
p996
sI20502
VTommie Smiley 
p997
sI12312
VVick King
p998
sI4125
VDavid Cobb
p999
sI4126
VDeAndra Cobb
p1000
sI12319
VLarry Kinnebrew
p1001
sI20513
VAllen Smith
p1002
sI12322
VJeff Kinney
p1003
sI4131
VReggie Cobb
p1004
sI4134
VTrevor Cobb
p1005
sI20519
VAntone Smith
p1006
sI4136
VEric Cobble
p1007
sI20521
VAntowain Smith
p1008
sI20522
VArmond Smith
p1009
sI12331
VTerry Kirby
p1010
sI4141
VAvon Cobourne
p1011
sI20526
VBarty Smith
p1012
sI12356
VDavid Kirtman
p1013
sI4168
VGlen Coffee
p1014
sI4171
VJunior Coffey
p1015
sI20557
VCharlie Smith
p1016
sI20559
VChris Smith
p1017
sI12371
VJim Kitts
p1018
sI20564
VClifton Smith
p1019
sI4185
VTarik Cohen 
p1020
sI20577
VDave Smith
p1021
sI7526
VTony Galbreath
p1022
sI20582
VDennis Smith
p1023
sI20585
VDetron Smith
p1024
sI20599
VDreamius Smith
p1025
sI4216
VTerry Cole
p1026
sI4220
VAlonzo Coleman
p1027
sI20608
VEmmitt Smith
p1028
sI4237
VDerrick Coleman
p1029
sI4247
VKaRon Coleman
p1030
sI4259
VRonnie Coleman
p1031
sI4263
VTevin Coleman
p1032
sI20649
VJeff Smith
p1033
sI20654
VJerome Smith
p1034
sI20662
VJimmy Smith
p1035
sI4280
VMike Collier
p1036
sI4285
VAlex Collins
p1037
sI4295
VCecil Collins
p1038
sI20685
VKevin Smith
p1039
sI20688
VKolby Smith
p1040
sI20690
VLamar Smith
p1041
sI20692
VLarry Smith
p1042
sI12501
VMark Konecny
p1043
sI20695
VLaverne Smith
p1044
sI4316
VLarry Collins
p1045
sI4322
VPatrick Collins
p1046
sI12517
VDave Kopay
p1047
sI20713
VMaurice Smith
p1048
sI4331
VSonny Collins
p1049
sI20716
VMichael Smith
p1050
sI4818
VLarry Croom
p1051
sI4334
VTony Collins
p1052
sI20722
VMusa Smith
p1053
sI12535
VGary Kosins
p1054
sI20729
VOnterrio Smith
p1055
sI20731
VOscar Smith
p1056
sI12543
VDoug Kotar
p1057
sI12564
VNick Kowgios
p1058
sI20757
VRobert Smith
p1059
sI20760
VRod Smith
p1060
sI20768
VRuss Smith
p1061
sI20771
VSammie Smith
p1062
sI20778
VSherman Smith
p1063
sI20782
VSteve Smith
p1064
sI20793
VThomas Smith
p1065
sI20796
VTimmy Smith
p1066
sI20799
VTony Smith
p1067
sI12610
VLarry Krause
p1068
sI4419
VJohn Conner
p1069
sI4837
VLeon Crosswhite
p1070
sI4458
VDalvin Cook
p1071
sI20844
VJason Snelling 
p1072
sI4470
VKelly Cook
p1073
sI20875
VOlaniyi Sobomehin
p1074
sI12698
VTerry Kunz
p1075
sI12704
VRalph Kurek
p1076
sI4521
VRafael Cooper
p1077
sI23966
VKen Willard
p1078
sI20940
VChad Spann
p1079
sI12749
VEddie Lacy
p1080
sI12750
VKen Lacy
p1081
sI4563
VAnthony Corley
p1082
sI12771
VMorris LaGrand
p1083
sI12776
VScott Laidlaw
p1084
sI22612
VRobert Turbin
p1085
sI20986
VTim Spencer
p1086
sI20987
VTodd Spencer
p1087
sI20988
VWillie Spencer
p1088
sI21248
VJohn Sterling
p1089
sI21000
VIrving Spikes
p1090
sI21004
VC.J. Spiller
p1091
sI4623
VKenyon Cotton
p1092
sI12817
VWalter Landers
p1093
sI14425
VDerrick McAdoo
p1094
sI12835
VEric Lane
p1095
sI12836
VEric Lane
p1096
sI12837
VFred Lane
p1097
sI21034
VDarren Sproles
p1098
sI4651
VJaime Covington
p1099
sI12844
VMacArthur Lane
p1100
sI4657
VLarry Cowan
p1101
sI12851
VDavid Lang
p1102
sI12852
VGene Lang
p1103
sI12853
VIzzy Lang
p1104
sI12860
VJeremy Langford
p1105
sI21062
VSiran Stacy
p1106
sI21063
VZac Stacy
p1107
sI4681
VMichael Cox
p1108
sI4682
VMike Cox
p1109
sI21077
VDuce Staley
p1110
sI4703
VDonnie Craft
p1111
sI21095
VHaskel Stanback
p1112
sI21097
VJeff Stanciel
p1113
sI4714
VRoger Craig
p1114
sI4882
VRonnie Cruz
p1115
sI12918
VPete Larson
p1116
sI4728
VAaron Craver
p1117
sI12922
VDaniel Lasco
p1118
sI4732
VCharles Crawford 
p1119
sI21117
VEd Stansbury
p1120
sI12933
VDerrick Lassic
p1121
sI21127
VChad Stark
p1122
sI4747
VRufus Crawford 
p1123
sI21133
VJames Starks
p1124
sI12945
VJerry Latin
p1125
sI12948
VBilly Latsko
p1126
sI12950
VBrian Lattimore
p1127
sI4762
VWillis Crenshaw
p1128
sI21151
VRobert Staten
p1129
sI4768
VJoe Cribbs
p1130
sI21156
VScott Stauch
p1131
sI21162
VAaron Stecker
p1132
sI12974
VRobert Lavette
p1133
sI4791
VJohn Crockett
p1134
sI21184
VLarry Stegent
p1135
sI12995
VMatt Lawrence
p1136
sI13005
VJamie Lawson
p1137
sI4817
VCorey Croom
p1138
sI13010
VOdell Lawson
p1139
sI13011
VRoger Lawson
p1140
sI13014
VLuke Lawton
p1141
sI4827
VSteve Crosby
p1142
sI13020
VGeorge Layne
p1143
sI13029
VVonta Leach
p1144
sI4844
VRay Crouse
p1145
sI13037
VRoosevelt Leaks
p1146
sI18557
VAllen Rice
p1147
sI21236
VTravis Stephens
p1148
sI21237
VTremayne Stephens
p1149
sI21238
VLaRod Stephens-Howling
p1150
sI4856
VLarry Crowe
p1151
sI24712
VAdrian Wright
p1152
sI18559
VDan Rice
p1153
sI4860
VIsaiah Crowell
p1154
sI13056
VMichael LeBlanc
p1155
sI21261
VHoward Stevens
p1156
sI4881
VDwayne Crutchfield
p1157
sI13074
VAmp Lee 
p1158
sI4885
VLarry Csonka 
p1159
sI4891
VJim Culbreath
p1160
sI21280
VCurtis Stewart
p1161
sI4898
VDerrick Cullors
p1162
sI13091
VDwight Lee 
p1163
sI21285
VJames Stewart
p1164
sI21286
VJames Stewart
p1165
sI9009
VDon Hardeman 
p1166
sI4906
VRodney Culver
p1167
sI21291
VJonathan Stewart
p1168
sI4919
VBenny Cunningham
p1169
sI4923
VDoug Cunningham
p1170
sI13119
VReShard Lee 
p1171
sI13120
VRon Lee 
p1172
sI4936
VSam Cunningham
p1173
sI7650
VMike Garrett
p1174
sI13137
VBurnie Legette
p1175
sI21332
VShyrone Stith
p1176
sI21339
VRalph Stockemer
p1177
sI13154
VCharlie Leigh
p1178
sI18580
VCurvin Richards
p1179
sI4991
VRandy Cuthbert
p1180
sI24043
VDeAngelo Williams
p1181
sI21381
VByron Storer
p1182
sI5000
VDave D'Addio
p1183
sI24045
VDelvin Williams
p1184
sI13211
VMikel Leshoure
p1185
sI21405
VMike Strachan 
p1186
sI21406
VSteve Strachan
p1187
sI5023
VAnthony Daigle
p1188
sI13218
VTim Lester
p1189
sI19953
VJohn Settle
p1190
sI13230
VDorsey Levens 
p1191
sI21426
VLes Strayhorn
p1192
sI13239
VChad Levitt
p1193
sI13241
VChuck Levy
p1194
sI13261
VDarren Lewis
p1195
sI21461
VJim Strong
p1196
sI21464
VRay Strong
p1197
sI5082
VWoodrow Dantzler
p1198
sI13275
VGary Lewis
p1199
sI13278
VGreg Lewis
p1200
sI5090
VKenneth Darby
p1201
sI13283
VJamal Lewis
p1202
sI5102
VOrleans Darkwa
p1203
sI13295
VKenny Lewis
p1204
sI3582
VKi-Jana Carter
p1205
sI13304
VMarvin Lewis
p1206
sI3583
VLouis Carter
p1207
sI5127
VNajeh Davenport 
p1208
sI5128
VRon Davenport
p1209
sI21175
VAnthony Steels
p1210
sI21519
VNicky Sualua
p1211
sI21530
VLee Suggs
p1212
sI21535
VMatt Suhey
p1213
sI5154
VAnthony Davis
p1214
sI5169
VBrad Davis
p1215
sI13363
VGarrett Limbrick
p1216
sI5180
VCarey Davis
p1217
sI21566
VTom Sullivan
p1218
sI5184
VCharlie Davis
p1219
sI13379
VHub Lindsey
p1220
sI13380
VJim Lindsey
p1221
sI21575
VFrank Summers
p1222
sI5202
VDick Davis
p1223
sI13402
VJonathan Linton
p1224
sI5212
VElgin Davis
p1225
sI5219
VGary Davis
p1226
sI21613
VTyrell Sutton
p1227
sI13425
VFloyd Little
p1228
sI5237
VJames Davis
p1229
sI5239
VJason Davis
p1230
sI13443
VAndy Livingston
p1231
sI5252
VJustin Davis
p1232
sI21640
VGeorge Swarn
p1233
sI5257
VKenneth Davis 
p1234
sI5258
VKnile Davis 
p1235
sI24087
VHarvey Williams
p1236
sI13457
VDoug Lloyd
p1237
sI5268
VMike Davis
p1238
sI3609
VMaurice Carthon
p1239
sI13482
VScott Lockwood
p1240
sI5293
VRussell Davis 
p1241
sI5303
VSonny Davis 
p1242
sI21688
VHarry Sydney
p1243
sI5305
VStephen Davis 
p1244
sI5306
VSteve Davis 
p1245
sI5308
VTerrell Davis 
p1246
sI13502
VMarc Logan
p1247
sI5313
VTony Davis 
p1248
sI13506
VStefan Logan
p1249
sI5317
VTristan Davis 
p1250
sI5318
VTroy Davis 
p1251
sI21720
VWill Ta'ufo'ou
p1252
sI5338
VJerone Davison
p1253
sI5345
VJoe Dawkins
p1254
sI21730
VNaufahu Tahi
p1255
sI5353
VClifton Dawson
p1256
sI13546
VKevin Long 
p1257
sI21742
VLorenzo Taliaferro
p1258
sI21753
VKen Talton
p1259
sI5374
VMatthew Dayes
p1260
sI14549
VDavid McCluskey
p1261
sI5377
VRon Dayne
p1262
sI10455
VBobby Humphrey
p1263
sI13584
VTony Lorick
p1264
sI6360
VRich Ellender
p1265
sI13597
VThomas Lott
p1266
sI21790
VJohn Tarver
p1267
sI21795
VBen Tate
p1268
sI21801
VLars Tate
p1269
sI21803
VRodney Tate
p1270
sI21805
VPete Tatman
p1271
sI13192
VBrian Leonard
p1272
sI21810
VMosi Tatupu
p1273
sI13619
VRandy Love
p1274
sI10462
VRonald Humphrey
p1275
sI21815
VJunior Tautalatasi
p1276
sI13629
VDerek Loville
p1277
sI13630
VWarren Loving
p1278
sI5439
VJoe Delaney
p1279
sI21824
VAltie Taylor
p1280
sI21826
VBilly Taylor
p1281
sI21833
VChester Taylor
p1282
sI21834
VChris Taylor
p1283
sI21837
VCliff Taylor
p1284
sI21842
VCraig Taylor
p1285
sI5459
VRobert Delpino
p1286
sI21850
VFred Taylor
p1287
sI21852
VGreg Taylor
p1288
sI5477
VJeff Demps
p1289
sI21865
VJesse Taylor
p1290
sI13694
VKregg Lumpkin
p1291
sI5504
VMike Dennis
p1292
sI5507
VDoug Dennison
p1293
sI6730
VMike Faulkerson
p1294
sI5510
VEarl Denny
p1295
sI13703
VDennis Lundy
p1296
sI5512
VAutry Denson
p1297
sI13705
VWali Lundy
p1298
sI5515
VMoses Denson
p1299
sI21903
VTony Taylor
p1300
sI13716
VHerb Lusk
p1301
sI13744
VEric Lynch 
p1302
sI13745
VFran Lynch 
p1303
sI13746
VJames Lynch 
p1304
sI13751
VMarshawn Lynch 
p1305
sI2292
VMel Bratton
p1306
sI13756
VAnthony Lynn
p1307
sI5565
VJames Develin
p1308
sI731
VJoe Auer
p1309
sI13769
VRob Lytle
p1310
sI21963
VRyan Terry
p1311
sI21968
VDon Testerman
p1312
sI5594
VRich Diana
p1313
sI13796
VKevin Mack
p1314
sI5605
VEric Dickerson
p1315
sI13799
VMarlon Mack
p1316
sI5609
VCurtis Dickey
p1317
sI13803
VStacey Mack
p1318
sI22000
VAndre Thomas
p1319
sI22001
VAnthony Thomas
p1320
sI22003
VBill Thomas
p1321
sI22004
VBlair Thomas
p1322
sI22005
VBob Thomas
p1323
sI5623
VDahrran Diedrick
p1324
sI22010
VCalvin Thomas
p1325
sI22014
VCharlie Thomas
p1326
sI5633
VScott Dierking
p1327
sI22024
VDaniel Thomas
p1328
sI13833
VTre Madden
p1329
sI22027
VDe'Anthony Thomas
p1330
sI22030
VDerrick Thomas
p1331
sI13839
VNick Maddox
p1332
sI22037
VDuane Thomas
p1333
sI5655
VCorey Dillon
p1334
sI13848
VMossis Madu
p1335
sI22048
VGene Thomas
p1336
sI13860
VTerrence Magee
p1337
sI5674
VMike Dingle
p1338
sI22062
VJewerl Thomas
p1339
sI5684
VRobert DiRico
p1340
sI13881
VReno Mahe
p1341
sI22077
VKen Thomas
p1342
sI5697
VAnthony Dixon
p1343
sI22084
VLavale Thomas
p1344
sI13896
VMarcus Mailei
p1345
sI22090
VMarcus Thomas
p1346
sI13899
VJack Maitland
p1347
sI5712
VKenneth Dixon
p1348
sI952
VEric Ball
p1349
sI22104
VPierre Thomas
p1350
sI5724
VZachary Dixon
p1351
sI22116
VRodney Thomas
p1352
sI13925
VArt Malone 
p1353
sI13926
VBenny Malone 
p1354
sI22128
VThurman Thomas
p1355
sI22137
VRich Thomaselli
p1356
sI15979
VJamie Mueller
p1357
sI5766
VTony Dollinger
p1358
sI22155
VBobby Thompson
p1359
sI13965
VJim Mankins
p1360
sI22162
VChris Thompson
p1361
sI22166
VDarrell Thompson
p1362
sI22169
VDavid Thompson
p1363
sI22170
VDel Thompson
p1364
sI5790
VTom Donchez
p1365
sI22179
VErnie Thompson
p1366
sI13993
VTim Manoa
p1367
sI967
VVick Ballard
p1368
sI22194
VJuwan Thompson
p1369
sI5813
VDan Doornink
p1370
sI22199
VLeroy Thompson
p1371
sI22211
VRocky Thompson
p1372
sI5830
VTony Dorsett
p1373
sI5832
VDe Dorsey
p1374
sI22221
VTom Thompson
p1375
sI5069
VLeShun Daniels
p1376
sI22226
VTyson Thompson
p1377
sI22227
VVince Thompson
p1378
sI14038
VOwen Marecic
p1379
sI14046
VEd Marinaro
p1380
sI9169
VGilbert Harris
p1381
sI5867
VDerrick Douglas
p1382
sI22255
VSidney Thornton 
p1383
sI14071
VLaurence Maroney
p1384
sI5883
VRobert Douglas
p1385
sI13269
VDion Lewis
p1386
sI5889
VTy Douthard
p1387
sI14100
VByron Marshall
p1388
sI5916
VGary Downs
p1389
sI22304
VLewis Tillman 
p1390
sI22308
VSpencer Tillman 
p1391
sI5928
VD.J. Dozier
p1392
sI14122
VWarren Marshall
p1393
sI5931
VOscar Dragon
p1394
sI5938
VKenyan Drake
p1395
sI21470
VDeon Strother
p1396
sI5943
VShaun Draughn
p1397
sI14142
VCurtis Martin 
p1398
sI5955
VDoug Dressler
p1399
sI14151
VDoug Martin 
p1400
sI22346
VCasey Tiumalu
p1401
sI5967
VReuben Droughns
p1402
sI5974
VRobert Drummond
p1403
sI22360
VLarry Todd
p1404
sI22362
VJordan Todman
p1405
sI22364
VLaBrandon Toefield
p1406
sI17382
VPaul Perkins 
p1407
sI22374
VMike Tolbert
p1408
sI5991
VJimmy DuBose
p1409
sI16018
VTony Mumford
p1410
sI5998
VT.J. Duckett
p1411
sI6006
VJoe Dudek
p1412
sI6012
VKevin Dudley
p1413
sI22399
VLaDainian Tomlinson
p1414
sI22407
VEd Toner
p1415
sI22409
VAnthony Toney
p1416
sI14223
VLarry Mason
p1417
sI14225
VMarcus Mason
p1418
sI14228
VTommy Mason
p1419
sI14229
VTre Mason
p1420
sI6038
VBobby Duhon
p1421
sI22426
VRyan Torain
p1422
sI14235
VChris Massey
p1423
sI22432
VEric Torkelson
p1424
sI22435
VBob Torrey
p1425
sI14248
VLe'Shai Maston
p1426
sI6471
VSteve Engel
p1427
sI6062
VLance Dunbar
p1428
sI22447
VFitzgerald Toussaint
p1429
sI6065
VVaughn Dunbar
p1430
sI6066
VBrian Duncan
p1431
sI14267
VRyan Mathews
p1432
sI6098
VPaul Dunn
p1433
sI6099
VPerry Lee Dunn
p1434
sI6102
VWarrick Dunn
p1435
sI14299
VBo Matthews
p1436
sI6109
VReggie Dupard
p1437
sI6115
VMarcus Dupree
p1438
sI6132
VBill Dusenbery
p1439
sI14335
VReagan Maui'a
p1440
sI6145
VJonathan Dwyer
p1441
sI6153
VHenry Dyer
p1442
sI14352
VAlvin Maxson
p1443
sI14353
VBruce Maxwell
p1444
sI6164
VNate Eachus
p1445
sI10586
VCarlos Hyde
p1446
sI6175
VJim Earley
p1447
sI14368
VSherriden May
p1448
sI22561
VBill Tucker
p1449
sI14371
VJames Mayberry 
p1450
sI22564
VGary Tucker
p1451
sI9222
VRaymont Harris
p1452
sI6183
VWalt Easley
p1453
sI6184
VDoug Easlick
p1454
sI22569
VMatthew Tucker
p1455
sI14385
VRueben Mayes
p1456
sI22583
VJohn Tuggle
p1457
sI22593
VPeter Tuipulotu
p1458
sI14406
VDevante Mays
p1459
sI6215
VAdimchinobe Echemandu
p1460
sI14408
VJerry Mays
p1461
sI6222
VKyle Eckel
p1462
sI6228
VJerry Eckwood
p1463
sI6233
VNick Eddy
p1464
sI14427
VFred McAfee
p1465
sI14433
VJames McAlister
p1466
sI14435
VDeuce McAllister
p1467
sI6244
VBobby Joe Edmonds
p1468
sI22632
VClem Turner
p1469
sI6249
VTrey Edmunds
p1470
sI22634
VDeacon Turner
p1471
sI14448
VRon McBride
p1472
sI6260
VCid Edwards
p1473
sI14460
VChristian McCaffrey 
p1474
sI22655
VMaurice Turner
p1475
sI22656
VMichael Turner
p1476
sI6275
VJimmy Edwards
p1477
sI14468
VOnterio McCalebb
p1478
sI14469
VBob McCall
p1479
sI14470
VDon McCall
p1480
sI14472
VJoe McCall
p1481
sI22665
VRobert Turner
p1482
sI14476
VNapoleon McCallum
p1483
sI6289
VRobert Edwards
p1484
sI6291
VStan Edwards
p1485
sI22679
VWillie Turral
p1486
sI14491
VBrendan McCarthy
p1487
sI22685
VStacy Tutt
p1488
sI6307
VPatrick Egu
p1489
sI14504
VDon McCauley
p1490
sI22700
VToussaint Tyler
p1491
sI22701
VWendell Tyler
p1492
sI14513
VCliff McClain
p1493
sI14518
VLe'Ron McClain
p1494
sI22711
VTim Tyrrell
p1495
sI6329
VAustin Ekeler
p1496
sI14523
VBrent McClanahan
p1497
sI14533
VWillie McClendon
p1498
sI6344
VMonroe Eley
p1499
sI6348
VKeith Elias
p1500
sI24270
VTravis Williams 
p1501
sI6521
VTyler Ervin 
p1502
sI22744
VHarvey Unga
p1503
sI6365
VGary Ellerson
p1504
sI6367
VAndre Ellington
p1505
sI14564
VEric McCoo
p1506
sI6375
VEzekiel Elliott
p1507
sI22761
VAndy Uram
p1508
sI6384
VLenvil Elliott
p1509
sI6394
VCraig Ellis
p1510
sI6398
VGerry Ellis
p1511
sI14591
VLeSean McCoy
p1512
sI22792
VIra Valentine
p1513
sI6415
VGlenn Ellison
p1514
sI6416
VJerry Ellison
p1515
sI6422
VWillie Ellison
p1516
sI22814
VMark van Eeghen
p1517
sI14625
VSultan McCullough
p1518
sI14632
VLawrence McCutcheon
p1519
sI16093
VLatavius Murray
p1520
sI22832
VPete Van Valkenberg
p1521
sI22833
VJim Van Wagner 
p1522
sI14648
VGary McDermott
p1523
sI6459
VLarry Emery
p1524
sI22855
VMike Varajon
p1525
sI22856
VTommy Vardell
p1526
sI22858
VTyler Varga
p1527
sI9271
VReggie Harrison
p1528
sI22870
VJosh Vaughan
p1529
sI6487
VCurtis Enis
p1530
sI14680
VRay McDonald
p1531
sI22879
VJon Vaughn
p1532
sI22885
VElton Veals
p1533
sI6504
VRich Erenberg
p1534
sI14697
VKevin McDougal
p1535
sI14704
VAnthony McDowell
p1536
sI21221
VJohn Stephens
p1537
sI14713
VLeeland McElroy
p1538
sI6523
VRicky Ervins
p1539
sI6524
VTerry Erwin
p1540
sI22910
VShane Vereen
p1541
sI6532
VMike Esposito
p1542
sI14725
VDarren McFadden
p1543
sI22932
VRoger Vick
p1544
sI14741
VWillis McGahee
p1545
sI14752
VBuford McGee
p1546
sI6562
VCharles Evans
p1547
sI6563
VCharlie Evans
p1548
sI6566
VDarren Evans
p1549
sI14760
VMolly McGee
p1550
sI5191
VClarence Davis
p1551
sI22962
VTony Vinson
p1552
sI6580
VJames Evans
p1553
sI22968
VLionel Vital
p1554
sI22981
VMike Voight
p1555
sI6604
VReggie Evans
p1556
sI6614
VMajor Everett
p1557
sI6624
VVilnis Ezerins
p1558
sI6625
VBlake Ezor
p1559
sI6626
VNuu Faaola
p1560
sI14819
VElijah McGuire 
p1561
sI6642
VCarl Fair
p1562
sI23029
VHarmon Wages
p1563
sI14842
VJoe McIntosh
p1564
sI14849
VSecdrick McIntyre
p1565
sI6669
VMario Fannin
p1566
sI23065
VCraig Walendy
p1567
sI6683
VJohn Farley
p1568
sI23069
VAdam Walker
p1569
sI23070
VAdam Walker
p1570
sI6687
VDave Farmer
p1571
sI6690
VGeorge Farmer
p1572
sI6694
VRobert Farmer
p1573
sI6696
VTed Farmer
p1574
sI23081
VCorey Walker
p1575
sI23082
VDarius Walker
p1576
sI6700
VMel Farr
p1577
sI6701
VMel Farr
p1578
sI14894
VHugh McKinnis
p1579
sI14897
VJerick McKinnon 
p1580
sI23092
VElliott Walker
p1581
sI14903
VJoe McKnight 
p1582
sI14904
VTed McKnight 
p1583
sI23099
VHerschel Walker
p1584
sI6717
VKenneth Farrow
p1585
sI6722
VCiatrick Fason
p1586
sI6727
VKevin Faulk
p1587
sI6728
VMarshall Faulk
p1588
sI14922
VChris McLemore
p1589
sI23122
VQuentin Walker
p1590
sI23127
VRobert Walker
p1591
sI6751
VJermaine Fazande
p1592
sI14953
VRandy McMillan
p1593
sI23159
VRay Wallace
p1594
sI14972
VTodd McNair
p1595
sI14986
VFreeman McNeil
p1596
sI14988
VPat McNeil
p1597
sI6799
VJerome Felton
p1598
sI14993
VRod McNeill
p1599
sI23187
VJim Walsh
p1600
sI23189
VWard Walsh
p1601
sI6806
VJames Fenderson
p1602
sI6808
VGill Fenerty
p1603
sI15003
VJerris McPhail
p1604
sI6812
VDerrick Fenner
p1605
sI6815
VRick Fenney
p1606
sI15014
VLeon McQuay
p1607
sI6828
VJosh Ferguson
p1608
sI6836
VVagas Ferguson 
p1609
sI15031
VChuck McSwain
p1610
sI6847
VBob Ferrell
p1611
sI6848
VEarl Ferrell
p1612
sI15044
VMike Meade
p1613
sI6857
VTony Fiammetta
p1614
sI23244
VDerrick Ward
p1615
sI15055
VNatrone Means
p1616
sI8412
VWilliam Green
p1617
sI15062
VRichard Medlin
p1618
sI23257
VTerron Ward
p1619
sI23261
VDanny Ware
p1620
sI15073
VDave Meggett
p1621
sI15074
VDavin Meggett
p1622
sI23267
VSpencer Ware
p1623
sI23277
VCurt Warner
p1624
sI23284
VChris Warren
p1625
sI23293
VLamont Warren
p1626
sI15112
VRashard Mendenhall
p1627
sI15120
VChuck Mercein
p1628
sI23314
VChauncey Washington
p1629
sI5251
VJohnny Davis
p1630
sI23321
VDamon Washington
p1631
sI23325
VDeAndre Washington
p1632
sI23329
VDwayne Washington
p1633
sI6952
VTony Fisher
p1634
sI23339
VJoe Washington
p1635
sI23340
VJoe Washington
p1636
sI23345
VLeon Washington
p1637
sI6968
VMickey Fitzgerald
p1638
sI20145
VMarcel Shipp
p1639
sI6979
VTerrence Flagler
p1640
sI1683
VLadell Betts
p1641
sI14817
VDusty McGrorty
p1642
sI18914
VVirgil Robinson
p1643
sI15195
VChristine Michael 
p1644
sI23390
VLarry Watkins
p1645
sI7008
VTroy Fleming
p1646
sI15211
VArnold Mickens
p1647
sI23404
VEddie Watson
p1648
sI15216
VJoe Mickles
p1649
sI23410
VJustin Watson
p1650
sI23411
VKenny Watson
p1651
sI15223
VFrank Middleton
p1652
sI23419
VTerrell Watson
p1653
sI15228
VTerdell Middleton 
p1654
sI7046
VKenny Flowers
p1655
sI23431
VRicky Watters
p1656
sI7054
VChris Floyd 
p1657
sI23443
VTrey Watts
p1658
sI23444
VCharles Way
p1659
sI7066
VVictor Floyd 
p1660
sI7069
VDavid Fluellen
p1661
sI15264
VOstell Miles
p1662
sI23467
VRobert Weathers
p1663
sI23470
VChuck Weatherspoon
p1664
sI23482
VLeonard Weaver
p1665
sI15299
VCleo Miller
p1666
sI2550
VBill Brown
p1667
sI20301
VJohn Simon
p1668
sI24398
VMarcus Wilson
p1669
sI7127
VGarrett Ford
p1670
sI7132
VJames Ford
p1671
sI7135
VMichael Ford 
p1672
sI7143
VChuck Foreman
p1673
sI7144
VD'Onta Foreman
p1674
sI23531
VMarquis Weeks
p1675
sI15340
VLamar Miller
p1676
sI15343
VLonyae Miller
p1677
sI23538
VBrandon Wegher
p1678
sI7155
VJustin Forsett
p1679
sI7156
VBrock Forsey
p1680
sI23542
VLee Weigel
p1681
sI7163
VIke Forte 
p1682
sI7164
VMatt Forte 
p1683
sI15358
VRobert Miller
p1684
sI7173
VArian Foster 
p1685
sI7174
VBarry Foster 
p1686
sI15367
VTerry Miller
p1687
sI7176
VD.J. Foster 
p1688
sI7177
VDerrick Foster 
p1689
sI7178
VDeShaun Foster 
p1690
sI23566
VClaxton Welch
p1691
sI23582
VBeanie Wells
p1692
sI7203
VLeonard Fournette 
p1693
sI23590
VJonathan Wells
p1694
sI15399
VBrian Milne
p1695
sI23600
VTerry Wells
p1696
sI18952
VDel Rodgers 
p1697
sI9395
VClarence Hawkins
p1698
sI23611
VJack Wender
p1699
sI15426
VRandy Minniear
p1700
sI3937
VAllan Clark
p1701
sI15432
VLincoln Minor
p1702
sI15433
VTravis Minor
p1703
sI15436
VCedric Minter
p1704
sI16226
VRay Nealy
p1705
sI7255
VJon Francis 
p1706
sI15448
VBrandon Miree
p1707
sI7257
VPhil Francis 
p1708
sI23645
VCharcandrick West 
p1709
sI7265
VMike Franckowiak
p1710
sI15461
VAlvin Mitchell 
p1711
sI15463
VBasil Mitchell 
p1712
sI23658
VTerrance West 
p1713
sI15467
VBrian Mitchell 
p1714
sI7276
VAndra Franklin
p1715
sI23662
VBrian Westbrook 
p1716
sI7282
VCleveland Franklin
p1717
sI7285
VGeorge Franklin
p1718
sI23670
VCleve Wester 
p1719
sI7289
VJohnathan Franklin
p1720
sI7294
VPat Franklin
p1721
sI15495
VLydell Mitchell 
p1722
sI23703
VTyrone Wheatley
p1723
sI15514
VStan Mitchell 
p1724
sI15515
VStump Mitchell 
p1725
sI17429
VBob Perryman 
p1726
sI7326
VPaul Frazier
p1727
sI7334
VTucker Frederickson
p1728
sI23719
VErnie Wheelwright
p1729
sI15528
VJoe Mixon
p1730
sI15531
VTaquan Mizzell
p1731
sI7342
VDevonta Freeman 
p1732
sI15535
VRyan Moats
p1733
sI23745
VCharles White
p1734
sI23746
VCharlie White
p1735
sI23770
VGerald White
p1736
sI23772
VJamel White
p1737
sI23774
VJames White 
p1738
sI7392
VStan Fritts
p1739
sI23781
VJohnny White
p1740
sI15590
VCarl Monroe 
p1741
sI23786
VLee White
p1742
sI23787
VLenDale White
p1743
sI23789
VLorenzo White
p1744
sI23793
VMarsh White 
p1745
sI7415
VPhil Frye
p1746
sI23800
VPaul White
p1747
sI7420
VChris Fuamatu-Ma'afala
p1748
sI15614
VRoss Montgomery
p1749
sI23807
VReggie White
p1750
sI15618
VTyrone Montgomery
p1751
sI15619
VWilbert Montgomery
p1752
sI7435
VEddie Fuller
p1753
sI15632
VCollin Mooney
p1754
sI15643
VAlex Moore
p1755
sI15645
VAlvin Moore
p1756
sI7454
VBrent Fullwood
p1757
sI23839
VA.D. Whitfield
p1758
sI15650
VBooker Moore
p1759
sI7463
VJohn Fuqua
p1760
sI24456
VSammy Winder
p1761
sI23860
VFozzy Whittaker
p1762
sI15672
VDerrick Moore
p1763
sI15673
VDevin Moore
p1764
sI23869
VArthur Whittington
p1765
sI15682
VGene Moore
p1766
sI21729
VJohn Tagliaferri
p1767
sI15689
VJerald Moore
p1768
sI7499
VDave Gagnon
p1769
sI15692
VJoe Moore
p1770
sI7502
VDerrick Gainer
p1771
sI7505
VClark Gaines
p1772
sI7508
VLawrence Gaines
p1773
sI15707
VLeonard Moore
p1774
sI15711
VManfred Moore
p1775
sI7522
VHokie Gajan 
p1776
sI15718
VMewelde Moore
p1777
sI15728
VRicky Moore
p1778
sI23923
VJames Wilder
p1779
sI23924
VBrandon Wilds
p1780
sI15733
VRonald Moore
p1781
sI7545
VWayne Gallman
p1782
sI23932
VMichael Wiley
p1783
sI17164
VDoug Paschal
p1784
sI7560
VR.C. Gamble
p1785
sI7567
VTerrance Ganaway
p1786
sI15766
VFrank Moreau
p1787
sI7578
VEarl Gant
p1788
sI15772
VVernand Morency
p1789
sI15773
VKnowshon Moreno
p1790
sI7582
VQuinton Ganther
p1791
sI15778
VArnold Morgado
p1792
sI23971
VGerald Willhite
p1793
sI23972
VKevin Willhite
p1794
sI23978
VAllen Williams
p1795
sI23979
VAlonzo Williams
p1796
sI23980
VAndre Williams
p1797
sI15789
VDennis Morgan
p1798
sI15801
VMike Morgan
p1799
sI15805
VLarry Moriarty
p1800
sI15806
VPat Moriarty
p1801
sI24008
VCadillac Williams
p1802
sI7625
VCharlie Garner
p1803
sI7626
VDwight Garner
p1804
sI15819
VBam Morris 
p1805
sI15826
VDonnie Joe Morris 
p1806
sI24021
VClarence Williams
p1807
sI24023
VClarence Williams
p1808
sI7641
VCarl Garrett
p1809
sI15834
VJamie Morris 
p1810
sI15836
VJoe Morris 
p1811
sI24031
VDamien Williams
p1812
sI15840
VLarry Morris 
p1813
sI15842
VMaurice Morris 
p1814
sI15844
VMercury Morris 
p1815
sI15846
VRandall Morris 
p1816
sI24039
VDave Williams
p1817
sI7657
VWalt Garrison
p1818
sI15851
VSammy Morris 
p1819
sI7661
VBen Garry
p1820
sI15855
VWayne Morris 
p1821
sI7666
VCleveland Gary
p1822
sI7668
VOlandis Gary
p1823
sI17662
VMichael Pittman
p1824
sI24054
VDomanick Williams
p1825
sI15866
VReece Morrison 
p1826
sI24060
VEd Williams
p1827
sI7678
VKendall Gaskins
p1828
sI15880
VBobby Morse
p1829
sI7689
VLionel Gates
p1830
sI15884
VSteve Morse
p1831
sI15887
VChad Morton
p1832
sI15895
VMichael Morton
p1833
sI15903
VRick Moser
p1834
sI7713
VBen Gay
p1835
sI24100
VJamaal Williams
p1836
sI15914
VAnthony Mosley
p1837
sI24111
VJavarris Williams
p1838
sI16800
VHubie Oliver
p1839
sI24115
VJermaine Williams
p1840
sI15925
VBrent Moss
p1841
sI24118
VJim Williams
p1842
sI15927
VEddie Moss
p1843
sI24124
VJoe Williams
p1844
sI24130
VJohn Williams
p1845
sI21771
VPhillip Tanner
p1846
sI15941
VRaheem Mostert
p1847
sI24134
VJon Williams
p1848
sI24135
VJonathan Williams
p1849
sI24142
VKarlos Williams 
p1850
sI24144
VKeiland Williams
p1851
sI7763
VEddie George
p1852
sI24148
VKerwynn Williams
p1853
sI24151
VKevin Williams
p1854
sI7770
VSpencer George
p1855
sI8715
VJames Hadnot 
p1856
sI5392
VWalter Dean
p1857
sI24164
VLeonard Williams
p1858
sI7783
VToby Gerhart 
p1859
sI19047
VDave Romasko
p1860
sI15980
VVance Mueller
p1861
sI24180
VMichael Williams
p1862
sI15993
VHerb Mul-Key
p1863
sI24191
VMoe Williams
p1864
sI24193
VNewton Williams
p1865
sI7813
VLouie Giammona
p1866
sI24201
VPerry Williams
p1867
sI7818
VNick Giaquinto
p1868
sI24204
VPooh Bear Williams
p1869
sI24210
VRay Williams
p1870
sI16024
VChuck Muncie
p1871
sI24217
VRichard Williams
p1872
sI24218
VRicky Williams
p1873
sI24219
VRicky Williams
p1874
sI24220
VRicky Williams
p1875
sI16032
VJames Mungro
p1876
sI24235
VRyan Williams
p1877
sI24240
VScott Williams
p1878
sI24241
VShaud Williams
p1879
sI24244
VSherman Williams
p1880
sI16063
VMarcus Murphy
p1881
sI16072
VRichard Murphy
p1882
sI7881
VOwen Gill
p1883
sI7886
VScoop Gillespie
p1884
sI24275
VTrey Williams
p1885
sI16084
VCalvin Murray
p1886
sI16086
VDeMarco Murray
p1887
sI24280
VVan Williams
p1888
sI24282
VVince Williams
p1889
sI16335
VRobert Newhouse
p1890
sI7901
VMike Gillislee 
p1891
sI24287
VWalter Williams
p1892
sI24288
VWandy Williams
p1893
sI24289
VWarren Williams
p1894
sI16098
VAdrian Murrell
p1895
sI7915
VHubert Ginn
p1896
sI16111
VJohnny Musso
p1897
sI7920
VPaul Gipson
p1898
sI16114
VBrad Muster
p1899
sI24531
VDerrick Witherspoon
p1900
sI24308
VChester Willis
p1901
sI24310
VFred Willis
p1902
sI24311
VJamal Willis
p1903
sI7936
VBob Gladieux
p1904
sI7937
VCharles Gladman
p1905
sI16143
VJesse Myles
p1906
sI24346
VBrett Wilson
p1907
sI24360
VDavid Wilson
p1908
sI5426
VJack DeGrenier
p1909
sI16175
VDimitri Nance
p1910
sI16176
VJim Nance
p1911
sI16185
VDamien Nash
p1912
sI24378
VHarry Wilson
p1913
sI16195
VTony Nathan
p1914
sI24388
VJoe Wilson
p1915
sI12983
VAmos Lawrence
p1916
sI16216
VLeon Neal
p1917
sI10360
VHarlan Huckleby
p1918
sI8026
VNick Goings
p1919
sI24413
VQuincy Wilson
p1920
sI16224
VSpeedy Neal
p1921
sI24418
VRobert Wilson
p1922
sI24423
VStanley Wilson 
p1923
sI16233
VLarry Ned
p1924
sI10899
VCraig James
p1925
sI24438
VWayne Wilson
p1926
sI20457
VLeroy Sledge
p1927
sI24446
VDerrick Wimbush
p1928
sI4418
VJames Conner
p1929
sI15817
VAlfred Morris 
p1930
sI8067
VNoe Gonzalez
p1931
sI2710
VReggie Brown
p1932
sI16264
VDarrin Nelson
p1933
sI16265
VDavid Nelson
p1934
sI24465
VStan Winfrey
p1935
sI8082
VKerry Goode
p1936
sI24473
VRonnie Wingo
p1937
sI16285
VRalph Nelson 
p1938
sI8094
VDon Goodman
p1939
sI8097
VHerbert Goodman 
p1940
sI8099
VLes Goodman
p1941
sI24484
VGeorge Winn
p1942
sI8110
VMike Goodson
p1943
sI24496
VGlenn Winston
p1944
sI8115
VDoug Goodwin
p1945
sI24505
VChet Winters 
p1946
sI8141
VLamar Gordon
p1947
sI8143
VLennox Gordon
p1948
sI8145
VMelvin Gordon
p1949
sI2723
VRonnie Brown
p1950
sI8152
VFrank Gore
p1951
sI24538
VJon Witman
p1952
sI16347
VTim Newman
p1953
sI8186
VJim Grabowski
p1954
sI16357
VTimmy Newsome
p1955
sI24553
VJames Wofford
p1956
sI5458
VJack Deloplaine
p1957
sI24560
VAl Wolden
p1958
sI16370
VTom Newton
p1959
sI24565
VGarrett Wolfe
p1960
sI24570
VRon Wolfley
p1961
s.