(lp1
(dp2
S'rushing_touchdowns'
p3
I1
sS'rushing_yards'
p4
I84
sS'receiving_receptions'
p5
I1
sS'receiving_yards'
p6
I0
sS'rushing_attempts'
p7
I18
sS'ID'
p8
I2110
sS'gamesPlayed'
p9
I3
sS'receiving_targets'
p10
I1
sS'receiving_touchdowns'
p11
I0
sa(dp12
g3
I0
sg4
I6
sg5
I0
sg6
I0
sg7
I4
sg8
I6132
sg9
I8
sg10
I0
sg11
I0
sa(dp13
g3
I1
sg4
I202
sg5
I16
sg6
I101
sg7
I39
sg8
I11088
sg9
I15
sg10
I18
sg11
I0
sa(dp14
g3
I0
sg4
I0
sg5
I0
sg6
I0
sg7
I0
sg8
I13457
sg9
I1
sg10
I0
sg11
I0
sa(dp15
g3
I1
sg4
I66
sg5
I1
sg6
I0
sg7
I16
sg8
I9059
sg9
I18
sg10
I0
sg11
I0
sa(dp16
g3
I3
sg4
I245
sg5
I5
sg6
I27
sg7
I78
sg8
I23703
sg9
I13
sg10
I5
sg11
I0
sa(dp17
g3
I1
sg4
I85
sg5
I2
sg6
I1
sg7
I8
sg8
I2622
sg9
I13
sg10
I0
sg11
I0
sa(dp18
g3
I0
sg4
I51
sg5
I0
sg6
I0
sg7
I5
sg8
I18617
sg9
I10
sg10
I0
sg11
I0
sa(dp19
g3
I0
sg4
I10
sg5
I11
sg6
I100
sg7
I3
sg8
I12776
sg9
I8
sg10
I0
sg11
I0
sa(dp20
g3
I1
sg4
I122
sg5
I2
sg6
I9
sg7
I35
sg8
I21237
sg9
I13
sg10
I6
sg11
I0
sa(dp21
g3
I0
sg4
I0
sg5
I0
sg6
I0
sg7
I0
sg8
I19255
sg9
I5
sg10
I0
sg11
I0
sa(dp22
g3
I0
sg4
I0
sg5
I0
sg6
I0
sg7
I0
sg8
I20510
sg9
I1
sg10
I0
sg11
I0
sa(dp23
g3
I0
sg4
I6
sg5
I2
sg6
I-1
sg7
I5
sg8
I16604
sg9
I2
sg10
I0
sg11
I0
sa(dp24
g3
I0
sg4
I18
sg5
I1
sg6
I12
sg7
I7
sg8
I7886
sg9
I7
sg10
I0
sg11
I0
sa(dp25
g3
I0
sg4
I223
sg5
I28
sg6
I218
sg7
I66
sg8
I14046
sg9
I10
sg10
I0
sg11
I1
sa(dp26
g3
I1
sg4
I239
sg5
I10
sg6
I89
sg7
I42
sg8
I712
sg9
I7
sg10
I0
sg11
I0
sa(dp27
g3
I0
sg4
I2
sg5
I3
sg6
I31
sg7
I1
sg8
I136
sg9
I17
sg10
I0
sg11
I0
sa(dp28
g3
I0
sg4
I37
sg5
I13
sg6
I171
sg7
I13
sg8
I22374
sg9
I13
sg10
I15
sg11
I1
sa(dp29
g3
I2
sg4
I633
sg5
I12
sg6
I102
sg7
I99
sg8
I16548
sg9
I14
sg10
I15
sg11
I0
sa(dp30
g3
I0
sg4
I2
sg5
I0
sg6
I0
sg7
I3
sg8
I3713
sg9
I18
sg10
I0
sg11
I0
sa(dp31
g3
I3
sg4
I268
sg5
I26
sg6
I253
sg7
I72
sg8
I21028
sg9
I17
sg10
I0
sg11
I1
sa(dp32
g3
I4
sg4
I919
sg5
I40
sg6
I483
sg7
I235
sg8
I22096
sg9
I14
sg10
I0
sg11
I3
sa(dp33
g3
I0
sg4
I0
sg5
I2
sg6
I20
sg7
I0
sg8
I24378
sg9
I2
sg10
I0
sg11
I0
sa(dp34
g3
I7
sg4
I130
sg5
I6
sg6
I31
sg7
I35
sg8
I16998
sg9
I16
sg10
I0
sg11
I1
sa(dp35
g3
I3
sg4
I178
sg5
I1
sg6
I33
sg7
I26
sg8
I11258
sg9
I14
sg10
I0
sg11
I0
sa(dp36
g3
I8
sg4
I976
sg5
I39
sg6
I286
sg7
I238
sg8
I20685
sg9
I16
sg10
I54
sg11
I0
sa(dp37
g3
I3
sg4
I724
sg5
I41
sg6
I400
sg7
I157
sg8
I7505
sg9
I14
sg10
I0
sg11
I2
sa(dp38
g3
I0
sg4
I0
sg5
I0
sg6
I0
sg7
I0
sg8
I21805
sg9
I1
sg10
I0
sg11
I0
sa(dp39
g3
I0
sg4
I31
sg5
I0
sg6
I0
sg7
I9
sg8
I5962
sg9
I2
sg10
I0
sg11
I0
sa(dp40
g3
I1
sg4
I7
sg5
I0
sg6
I0
sg7
I3
sg8
I22870
sg9
I3
sg10
I0
sg11
I0
sa(dp41
g3
I9
sg4
I389
sg5
I6
sg6
I63
sg7
I100
sg8
I7392
sg9
I14
sg10
I0
sg11
I2
sa(dp42
g3
I1
sg4
I10
sg5
I0
sg6
I0
sg7
I3
sg8
I17988
sg9
I4
sg10
I0
sg11
I0
sa(dp43
g3
I2
sg4
I183
sg5
I3
sg6
I18
sg7
I45
sg8
I15619
sg9
I14
sg10
I0
sg11
I0
sa(dp44
g3
I0
sg4
I5
sg5
I2
sg6
I15
sg7
I3
sg8
I12535
sg9
I14
sg10
I0
sg11
I1
sa(dp45
g3
I1
sg4
I166
sg5
I2
sg6
I13
sg7
I38
sg8
I7666
sg9
I11
sg10
I0
sg11
I0
sa(dp46
g3
I0
sg4
I0
sg5
I2
sg6
I3
sg7
I0
sg8
I21381
sg9
I10
sg10
I3
sg11
I0
sa(dp47
g3
I0
sg4
I0
sg5
I0
sg6
I0
sg7
I0
sg8
I17078
sg9
I1
sg10
I0
sg11
I0
sa(dp48
g3
I0
sg4
I21
sg5
I0
sg6
I0
sg7
I9
sg8
I4791
sg9
I3
sg10
I0
sg11
I0
sa(dp49
g3
I1
sg4
I105
sg5
I12
sg6
I113
sg7
I20
sg8
I555
sg9
I15
sg10
I0
sg11
I0
sa(dp50
g3
I1
sg4
I132
sg5
I0
sg6
I0
sg7
I33
sg8
I5293
sg9
I14
sg10
I0
sg11
I0
sa(dp51
g3
I2
sg4
I191
sg5
I3
sg6
I37
sg7
I50
sg8
I7156
sg9
I9
sg10
I5
sg11
I0
sa(dp52
g3
I0
sg4
I3
sg5
I1
sg6
I5
sg7
I2
sg8
I15895
sg9
I10
sg10
I0
sg11
I0
sa(dp53
g3
I0
sg4
I0
sg5
I0
sg6
I0
sg7
I0
sg8
I1476
sg9
I14
sg10
I0
sg11
I0
sa(dp54
g3
I4
sg4
I15
sg5
I0
sg6
I0
sg7
I19
sg8
I6604
sg9
I18
sg10
I0
sg11
I0
sa(dp55
g3
I1
sg4
I179
sg5
I5
sg6
I42
sg7
I32
sg8
I10504
sg9
I12
sg10
I0
sg11
I0
sa(dp56
g3
I1
sg4
I112
sg5
I1
sg6
I8
sg7
I32
sg8
I8493
sg9
I19
sg10
I1
sg11
I0
sa(dp57
g3
I0
sg4
I17
sg5
I0
sg6
I0
sg7
I3
sg8
I9235
sg9
I15
sg10
I0
sg11
I0
sa(dp58
g3
I0
sg4
I23
sg5
I3
sg6
I26
sg7
I8
sg8
I9163
sg9
I14
sg10
I0
sg11
I0
sa(dp59
g3
I1
sg4
I85
sg5
I1
sg6
I5
sg7
I20
sg8
I5306
sg9
I13
sg10
I0
sg11
I0
sa(dp60
g3
I1
sg4
I172
sg5
I17
sg6
I208
sg7
I30
sg8
I17995
sg9
I6
sg10
I19
sg11
I0
sa(dp61
g3
I8
sg4
I840
sg5
I28
sg6
I177
sg7
I194
sg8
I20521
sg9
I16
sg10
I47
sg11
I0
sa(dp62
g3
I0
sg4
I4
sg5
I0
sg6
I0
sg7
I1
sg8
I6696
sg9
I2
sg10
I0
sg11
I0
sa(dp63
g3
I1
sg4
I122
sg5
I4
sg6
I45
sg7
I38
sg8
I12322
sg9
I9
sg10
I0
sg11
I0
sa(dp64
g3
I0
sg4
I29
sg5
I6
sg6
I47
sg7
I9
sg8
I11288
sg9
I4
sg10
I7
sg11
I0
sa(dp65
g3
I7
sg4
I590
sg5
I24
sg6
I223
sg7
I135
sg8
I24310
sg9
I14
sg10
I0
sg11
I0
sa(dp66
g3
I4
sg4
I328
sg5
I12
sg6
I90
sg7
I95
sg8
I14299
sg9
I14
sg10
I0
sg11
I0
sa(dp67
g3
I0
sg4
I0
sg5
I0
sg6
I0
sg7
I0
sg8
I12948
sg9
I1
sg10
I0
sg11
I0
sa(dp68
g3
I1
sg4
I237
sg5
I3
sg6
I22
sg7
I56
sg8
I1503
sg9
I14
sg10
I0
sg11
I0
sa(dp69
g3
I0
sg4
I29
sg5
I4
sg6
I48
sg7
I7
sg8
I9229
sg9
I10
sg10
I8
sg11
I0
sa(dp70
g3
I0
sg4
I0
sg5
I0
sg6
I0
sg7
I0
sg8
I22593
sg9
I6
sg10
I0
sg11
I0
sa(dp71
g3
I1
sg4
I190
sg5
I6
sg6
I59
sg7
I48
sg8
I656
sg9
I8
sg10
I6
sg11
I0
sa(dp72
g3
I0
sg4
I8
sg5
I7
sg6
I97
sg7
I3
sg8
I10024
sg9
I13
sg10
I0
sg11
I1
sa(dp73
g3
I0
sg4
I38
sg5
I1
sg6
I-2
sg7
I11
sg8
I9671
sg9
I6
sg10
I0
sg11
I0
sa(dp74
g3
I0
sg4
I16
sg5
I2
sg6
I13
sg7
I5
sg8
I19789
sg9
I11
sg10
I2
sg11
I0
sa(dp75
g3
I0
sg4
I0
sg5
I0
sg6
I0
sg7
I0
sg8
I6857
sg9
I10
sg10
I0
sg11
I0
sa(dp76
g3
I0
sg4
I0
sg5
I0
sg6
I0
sg7
I0
sg8
I18312
sg9
I1
sg10
I0
sg11
I0
sa(dp77
g3
I0
sg4
I-3
sg5
I1
sg6
I0
sg7
I2
sg8
I13443
sg9
I2
sg10
I0
sg11
I0
sa(dp78
g3
I13
sg4
I424
sg5
I16
sg6
I97
sg7
I107
sg8
I5128
sg9
I18
sg10
I0
sg11
I2
sa(dp79
g3
I15
sg4
I1687
sg5
I52
sg6
I395
sg7
I398
sg8
I23277
sg9
I19
sg10
I0
sg11
I1
sa(dp80
g3
I0
sg4
I0
sg5
I0
sg6
I0
sg7
I0
sg8
I6175
sg9
I2
sg10
I0
sg11
I0
sa(dp81
g3
I0
sg4
I2
sg5
I2
sg6
I17
sg7
I2
sg8
I4322
sg9
I5
sg10
I0
sg11
I0
sa(dp82
g3
I0
sg4
I8
sg5
I0
sg6
I0
sg7
I4
sg8
I2291
sg9
I2
sg10
I0
sg11
I0
sa(dp83
g3
I0
sg4
I136
sg5
I9
sg6
I38
sg7
I40
sg8
I13925
sg9
I14
sg10
I0
sg11
I1
sa(dp84
g3
I1
sg4
I790
sg5
I22
sg6
I159
sg7
I160
sg8
I10899
sg9
I15
sg10
I0
sg11
I0
sa(dp85
g3
I3
sg4
I162
sg5
I3
sg6
I13
sg7
I62
sg8
I11591
sg9
I16
sg10
I10
sg11
I0
sa(dp86
g3
I0
sg4
I12
sg5
I2
sg6
I21
sg7
I3
sg8
I15778
sg9
I14
sg10
I0
sg11
I0
sa(dp87
g3
I1
sg4
I769
sg5
I36
sg6
I231
sg7
I180
sg8
I18676
sg9
I14
sg10
I0
sg11
I2
sa(dp88
g3
I0
sg4
I300
sg5
I22
sg6
I190
sg7
I58
sg8
I10768
sg9
I8
sg10
I30
sg11
I0
sa(dp89
g3
I0
sg4
I2
sg5
I0
sg6
I0
sg7
I2
sg8
I21803
sg9
I10
sg10
I0
sg11
I0
sa(dp90
g3
I1
sg4
I659
sg5
I52
sg6
I336
sg7
I177
sg8
I20692
sg9
I15
sg10
I0
sg11
I2
sa(dp91
g3
I0
sg4
I158
sg5
I11
sg6
I83
sg7
I40
sg8
I3054
sg9
I14
sg10
I0
sg11
I1
sa(dp92
g3
I0
sg4
I0
sg5
I0
sg6
I0
sg7
I0
sg8
I585
sg9
I2
sg10
I0
sg11
I0
sa(dp93
g3
I3
sg4
I660
sg5
I24
sg6
I169
sg7
I157
sg8
I16769
sg9
I12
sg10
I0
sg11
I0
sa(dp94
g3
I0
sg4
I0
sg5
I0
sg6
I0
sg7
I0
sg8
I23092
sg9
I9
sg10
I0
sg11
I0
sa(dp95
g3
I0
sg4
I5
sg5
I5
sg6
I81
sg7
I1
sg8
I20158
sg9
I11
sg10
I0
sg11
I0
sa(dp96
g3
I0
sg4
I227
sg5
I18
sg6
I160
sg7
I71
sg8
I2810
sg9
I7
sg10
I0
sg11
I1
sa(dp97
g3
I4
sg4
I369
sg5
I9
sg6
I110
sg7
I61
sg8
I18006
sg9
I13
sg10
I0
sg11
I1
sa(dp98
g3
I1
sg4
I211
sg5
I4
sg6
I40
sg7
I35
sg8
I22227
sg9
I13
sg10
I0
sg11
I0
sa(dp99
g3
I0
sg4
I33
sg5
I0
sg6
I0
sg7
I4
sg8
I12698
sg9
I7
sg10
I0
sg11
I0
sa(dp100
g3
I7
sg4
I917
sg5
I18
sg6
I121
sg7
I268
sg8
I8412
sg9
I17
sg10
I29
sg11
I0
sa(dp101
g3
I1
sg4
I85
sg5
I0
sg6
I0
sg7
I19
sg8
I2627
sg9
I3
sg10
I0
sg11
I0
sa(dp102
g3
I3
sg4
I377
sg5
I65
sg6
I557
sg7
I96
sg8
I362
sg9
I16
sg10
I81
sg11
I3
sa(dp103
g3
I1
sg4
I494
sg5
I31
sg6
I202
sg7
I86
sg8
I18575
sg9
I17
sg10
I41
sg11
I2
sa(dp104
g3
I3
sg4
I238
sg5
I13
sg6
I98
sg7
I58
sg8
I24060
sg9
I14
sg10
I0
sg11
I1
sa(dp105
g3
I0
sg4
I0
sg5
I0
sg6
I0
sg7
I0
sg8
I14307
sg9
I3
sg10
I0
sg11
I0
sa(dp106
g3
I0
sg4
I0
sg5
I0
sg6
I0
sg7
I0
sg8
I21963
sg9
I15
sg10
I0
sg11
I0
sa(dp107
g3
I0
sg4
I59
sg5
I0
sg6
I0
sg7
I18
sg8
I18559
sg9
I3
sg10
I0
sg11
I0
sa(dp108
g3
I0
sg4
I39
sg5
I6
sg6
I33
sg7
I17
sg8
I18880
sg9
I5
sg10
I6
sg11
I0
sa(dp109
g3
I0
sg4
I333
sg5
I11
sg6
I50
sg7
I84
sg8
I22634
sg9
I16
sg10
I0
sg11
I0
sa(dp110
g3
I2
sg4
I525
sg5
I21
sg6
I190
sg7
I137
sg8
I21286
sg9
I14
sg10
I27
sg11
I1
sa(dp111
g3
I0
sg4
I0
sg5
I0
sg6
I0
sg7
I0
sg8
I23807
sg9
I5
sg10
I0
sg11
I0
sa(dp112
g3
I2
sg4
I217
sg5
I1
sg6
I8
sg7
I62
sg8
I1687
sg9
I3
sg10
I0
sg11
I0
sa(dp113
g3
I0
sg4
I5
sg5
I0
sg6
I0
sg7
I6
sg8
I16839
sg9
I2
sg10
I0
sg11
I0
sa(dp114
g3
I1
sg4
I591
sg5
I15
sg6
I142
sg7
I156
sg8
I18866
sg9
I12
sg10
I21
sg11
I0
sa(dp115
g3
I0
sg4
I22
sg5
I3
sg6
I35
sg7
I4
sg8
I15643
sg9
I2
sg10
I0
sg11
I0
sa(dp116
g3
I0
sg4
I0
sg5
I0
sg6
I0
sg7
I0
sg8
I3289
sg9
I13
sg10
I0
sg11
I0
sa(dp117
g3
I0
sg4
I0
sg5
I0
sg6
I0
sg7
I0
sg8
I10481
sg9
I2
sg10
I0
sg11
I0
sa(dp118
g3
I0
sg4
I114
sg5
I1
sg6
I5
sg7
I17
sg8
I17769
sg9
I3
sg10
I0
sg11
I0
sa(dp119
g3
I4
sg4
I621
sg5
I44
sg6
I422
sg7
I165
sg8
I12204
sg9
I14
sg10
I0
sg11
I0
sa(dp120
g3
I0
sg4
I2
sg5
I1
sg6
I5
sg7
I1
sg8
I17201
sg9
I1
sg10
I0
sg11
I0
sa(dp121
g3
I0
sg4
I0
sg5
I0
sg6
I0
sg7
I0
sg8
I22711
sg9
I11
sg10
I0
sg11
I0
sa(dp122
g3
I0
sg4
I0
sg5
I1
sg6
I6
sg7
I0
sg8
I21236
sg9
I1
sg10
I1
sg11
I0
sa(dp123
g3
I1
sg4
I323
sg5
I7
sg6
I44
sg7
I44
sg8
I11755
sg9
I17
sg10
I10
sg11
I1
sa(dp124
g3
I0
sg4
I0
sg5
I0
sg6
I0
sg7
I0
sg8
I774
sg9
I1
sg10
I0
sg11
I0
sa(dp125
g3
I2
sg4
I220
sg5
I23
sg6
I254
sg7
I91
sg8
I8705
sg9
I14
sg10
I0
sg11
I0
sa(dp126
g3
I2
sg4
I382
sg5
I30
sg6
I162
sg7
I88
sg8
I5712
sg9
I12
sg10
I41
sg11
I1
sa(dp127
g3
I1
sg4
I62
sg5
I0
sg6
I0
sg7
I11
sg8
I21426
sg9
I13
sg10
I0
sg11
I0
sa(dp128
g3
I1
sg4
I25
sg5
I4
sg6
I26
sg7
I9
sg8
I18654
sg9
I14
sg10
I8
sg11
I0
sa(dp129
g3
I0
sg4
I2
sg5
I2
sg6
I13
sg7
I6
sg8
I8259
sg9
I6
sg10
I3
sg11
I0
sa(dp130
g3
I1
sg4
I186
sg5
I6
sg6
I40
sg7
I41
sg8
I7127
sg9
I8
sg10
I0
sg11
I0
sa(dp131
g3
I0
sg4
I497
sg5
I6
sg6
I20
sg7
I133
sg8
I6487
sg9
I9
sg10
I8
sg11
I0
sa(dp132
g3
I0
sg4
I315
sg5
I1
sg6
I9
sg7
I86
sg8
I22304
sg9
I17
sg10
I0
sg11
I0
sa(dp133
g8
I22744
sa(dp134
g3
I2
sg4
I317
sg5
I9
sg6
I63
sg7
I74
sg8
I2574
sg9
I13
sg10
I10
sg11
I0
sa(dp135
g3
I1
sg4
I76
sg5
I1
sg6
I12
sg7
I24
sg8
I18647
sg9
I3
sg10
I0
sg11
I0
sa(dp136
g3
I4
sg4
I890
sg5
I36
sg6
I344
sg7
I184
sg8
I10496
sg9
I11
sg10
I42
sg11
I2
sa(dp137
g3
I0
sg4
I0
sg5
I0
sg6
I0
sg7
I0
sg8
I10135
sg9
I7
sg10
I0
sg11
I0
sa(dp138
g3
I1
sg4
I68
sg5
I12
sg6
I68
sg7
I15
sg8
I19595
sg9
I11
sg10
I0
sg11
I1
sa(dp139
g3
I2
sg4
I668
sg5
I30
sg6
I224
sg7
I161
sg8
I21405
sg9
I11
sg10
I0
sg11
I0
sa(dp140
g3
I0
sg4
I0
sg5
I1
sg6
I2
sg7
I1
sg8
I17913
sg9
I7
sg10
I1
sg11
I0
sa(dp141
g3
I0
sg4
I0
sg5
I0
sg6
I0
sg7
I0
sg8
I4220
sg9
I1
sg10
I0
sg11
I0
sa(dp142
g3
I0
sg4
I183
sg5
I8
sg6
I106
sg7
I32
sg8
I22360
sg9
I10
sg10
I0
sg11
I0
sa(dp143
g3
I0
sg4
I0
sg5
I0
sg6
I0
sg7
I0
sg8
I2141
sg9
I1
sg10
I0
sg11
I0
sa(dp144
g3
I1
sg4
I157
sg5
I32
sg6
I240
sg7
I41
sg8
I17283
sg9
I17
sg10
I36
sg11
I0
sa(dp145
g3
I0
sg4
I0
sg5
I0
sg6
I0
sg7
I0
sg8
I456
sg9
I1
sg10
I0
sg11
I0
sa(dp146
g3
I0
sg4
I90
sg5
I2
sg6
I22
sg7
I25
sg8
I5684
sg9
I3
sg10
I0
sg11
I0
sa(dp147
g3
I4
sg4
I346
sg5
I56
sg6
I573
sg7
I87
sg8
I2855
sg9
I13
sg10
I0
sg11
I4
sa(dp148
g3
I1
sg4
I81
sg5
I7
sg6
I85
sg7
I30
sg8
I7502
sg9
I16
sg10
I0
sg11
I0
sa(dp149
g3
I0
sg4
I211
sg5
I20
sg6
I124
sg7
I71
sg8
I16907
sg9
I13
sg10
I0
sg11
I0
sa(dp150
g3
I5
sg4
I691
sg5
I29
sg6
I267
sg7
I137
sg8
I7641
sg9
I14
sg10
I0
sg11
I2
sa(dp151
g3
I1
sg4
I119
sg5
I1
sg6
I9
sg7
I29
sg8
I19465
sg9
I18
sg10
I0
sg11
I0
sa(dp152
g3
I1
sg4
I115
sg5
I1
sg6
I6
sg7
I22
sg8
I20768
sg9
I4
sg10
I0
sg11
I0
sa(dp153
g3
I2
sg4
I897
sg5
I26
sg6
I183
sg7
I164
sg8
I16086
sg9
I13
sg10
I35
sg11
I0
sa(dp154
g3
I3
sg4
I529
sg5
I9
sg6
I48
sg7
I197
sg8
I23590
sg9
I16
sg10
I12
sg11
I0
sa(dp155
g3
I0
sg4
I0
sg5
I1
sg6
I9
sg7
I4
sg8
I4651
sg9
I2
sg10
I0
sg11
I0
sa(dp156
g3
I0
sg4
I-9
sg5
I3
sg6
I21
sg7
I5
sg8
I2168
sg9
I14
sg10
I0
sg11
I0
sa(dp157
g3
I0
sg4
I117
sg5
I6
sg6
I48
sg7
I29
sg8
I15463
sg9
I16
sg10
I9
sg11
I0
sa(dp158
g3
I0
sg4
I0
sg5
I0
sg6
I0
sg7
I0
sg8
I17336
sg9
I16
sg10
I0
sg11
I0
sa(dp159
g3
I7
sg4
I717
sg5
I3
sg6
I6
sg7
I210
sg8
I7276
sg9
I17
sg10
I0
sg11
I1
sa(dp160
g3
I2
sg4
I401
sg5
I50
sg6
I401
sg7
I159
sg8
I2076
sg9
I14
sg10
I0
sg11
I2
sa(dp161
g3
I0
sg4
I2
sg5
I1
sg6
I18
sg7
I1
sg8
I22858
sg9
I3
sg10
I2
sg11
I0
sa(dp162
g3
I0
sg4
I0
sg5
I1
sg6
I15
sg7
I0
sg8
I4882
sg9
I14
sg10
I1
sg11
I0
sa(dp163
g3
I1
sg4
I193
sg5
I10
sg6
I92
sg7
I46
sg8
I9807
sg9
I10
sg10
I0
sg11
I1
sa(dp164
g3
I0
sg4
I0
sg5
I0
sg6
I0
sg7
I0
sg8
I5510
sg9
I1
sg10
I0
sg11
I0
sa(dp165
g3
I6
sg4
I1007
sg5
I5
sg6
I14
sg7
I201
sg8
I1890
sg9
I13
sg10
I7
sg11
I0
sa(dp166
g3
I0
sg4
I0
sg5
I1
sg6
I11
sg7
I0
sg8
I15461
sg9
I5
sg10
I0
sg11
I0
sa(dp167
g3
I0
sg4
I4
sg5
I0
sg6
I0
sg7
I2
sg8
I20313
sg9
I2
sg10
I0
sg11
I0
sa(dp168
g3
I0
sg4
I110
sg5
I1
sg6
I6
sg7
I19
sg8
I10176
sg9
I11
sg10
I0
sg11
I0
sa(dp169
g3
I4
sg4
I529
sg5
I24
sg6
I249
sg7
I130
sg8
I1075
sg9
I16
sg10
I31
sg11
I1
sa(dp170
g3
I1
sg4
I312
sg5
I6
sg6
I55
sg7
I77
sg8
I20487
sg9
I13
sg10
I13
sg11
I0
sa(dp171
g3
I2
sg4
I368
sg5
I20
sg6
I102
sg7
I92
sg8
I13074
sg9
I17
sg10
I25
sg11
I2
sa(dp172
g3
I3
sg4
I272
sg5
I4
sg6
I25
sg7
I54
sg8
I22194
sg9
I15
sg10
I7
sg11
I0
sa(dp173
g3
I0
sg4
I0
sg5
I0
sg6
I0
sg7
I0
sg8
I17314
sg9
I2
sg10
I0
sg11
I0
sa(dp174
g3
I0
sg4
I-1
sg5
I1
sg6
I20
sg7
I3
sg8
I5786
sg9
I1
sg10
I0
sg11
I0
sa(dp175
g3
I1
sg4
I170
sg5
I2
sg6
I3
sg7
I49
sg8
I13056
sg9
I4
sg10
I0
sg11
I0
sa(dp176
g3
I0
sg4
I36
sg5
I0
sg6
I0
sg7
I7
sg8
I3080
sg9
I13
sg10
I0
sg11
I0
sa(dp177
g3
I3
sg4
I199
sg5
I11
sg6
I101
sg7
I66
sg8
I1994
sg9
I12
sg10
I0
sg11
I1
sa(dp178
g3
I1
sg4
I214
sg5
I1
sg6
I2
sg7
I31
sg8
I6260
sg9
I10
sg10
I0
sg11
I0
sa(dp179
g3
I2
sg4
I22
sg5
I2
sg6
I9
sg7
I13
sg8
I24240
sg9
I16
sg10
I0
sg11
I0
sa(dp180
g3
I0
sg4
I78
sg5
I3
sg6
I71
sg7
I23
sg8
I17297
sg9
I14
sg10
I0
sg11
I2
sa(dp181
g3
I0
sg4
I0
sg5
I1
sg6
I2
sg7
I0
sg8
I782
sg9
I14
sg10
I1
sg11
I0
sa(dp182
g3
I0
sg4
I17
sg5
I0
sg6
I0
sg7
I4
sg8
I13379
sg9
I1
sg10
I0
sg11
I0
sa(dp183
g3
I5
sg4
I641
sg5
I12
sg6
I128
sg7
I204
sg8
I2937
sg9
I15
sg10
I0
sg11
I0
sa(dp184
g3
I0
sg4
I16
sg5
I0
sg6
I0
sg7
I4
sg8
I17741
sg9
I16
sg10
I0
sg11
I0
sa(dp185
g3
I0
sg4
I22
sg5
I0
sg6
I0
sg7
I8
sg8
I15264
sg9
I11
sg10
I0
sg11
I0
sa(dp186
g3
I0
sg4
I4
sg5
I3
sg6
I25
sg7
I4
sg8
I7415
sg9
I1
sg10
I0
sg11
I0
sa(dp187
g3
I0
sg4
I0
sg5
I0
sg6
I0
sg7
I0
sg8
I20585
sg9
I13
sg10
I0
sg11
I0
sa(dp188
g3
I0
sg4
I31
sg5
I3
sg6
I26
sg7
I8
sg8
I5594
sg9
I13
sg10
I0
sg11
I0
sa(dp189
g3
I7
sg4
I678
sg5
I22
sg6
I145
sg7
I158
sg8
I14267
sg9
I12
sg10
I26
sg11
I0
sa(dp190
g3
I1
sg4
I297
sg5
I8
sg6
I58
sg7
I60
sg8
I4762
sg9
I11
sg10
I0
sg11
I0
sa(dp191
g3
I0
sg4
I156
sg5
I13
sg6
I104
sg7
I38
sg8
I3219
sg9
I13
sg10
I0
sg11
I1
sa(dp192
g3
I4
sg4
I203
sg5
I9
sg6
I73
sg7
I50
sg8
I24796
sg9
I7
sg10
I14
sg11
I0
sa(dp193
g3
I0
sg4
I0
sg5
I0
sg6
I0
sg7
I0
sg8
I23321
sg9
I6
sg10
I0
sg11
I0
sa(dp194
g3
I0
sg4
I29
sg5
I5
sg6
I14
sg7
I10
sg8
I2263
sg9
I1
sg10
I6
sg11
I1
sa(dp195
g3
I0
sg4
I2
sg5
I0
sg6
I0
sg7
I2
sg8
I6624
sg9
I3
sg10
I0
sg11
I0
sa(dp196
g3
I0
sg4
I176
sg5
I8
sg6
I91
sg7
I48
sg8
I6233
sg9
I4
sg10
I0
sg11
I0
sa(dp197
g3
I0
sg4
I96
sg5
I6
sg6
I39
sg7
I18
sg8
I10479
sg9
I8
sg10
I10
sg11
I0
sa(dp198
g3
I0
sg4
I0
sg5
I0
sg6
I0
sg7
I0
sg8
I263
sg9
I13
sg10
I0
sg11
I0
sa(dp199
g3
I0
sg4
I0
sg5
I0
sg6
I0
sg7
I0
sg8
I22407
sg9
I8
sg10
I0
sg11
I0
sa(dp200
g3
I0
sg4
I0
sg5
I0
sg6
I0
sg7
I0
sg8
I15031
sg9
I1
sg10
I0
sg11
I0
sa(dp201
g3
I0
sg4
I53
sg5
I2
sg6
I6
sg7
I12
sg8
I4891
sg9
I14
sg10
I0
sg11
I0
sa(dp202
g3
I1
sg4
I198
sg5
I8
sg6
I92
sg7
I60
sg8
I4817
sg9
I14
sg10
I18
sg11
I0
sa(dp203
g3
I2
sg4
I183
sg5
I4
sg6
I39
sg7
I45
sg8
I21261
sg9
I14
sg10
I0
sg11
I0
sa(dp204
g3
I0
sg4
I-3
sg5
I1
sg6
I-10
sg7
I1
sg8
I17771
sg9
I16
sg10
I0
sg11
I0
sa(dp205
g3
I0
sg4
I6
sg5
I0
sg6
I0
sg7
I3
sg8
I21810
sg9
I17
sg10
I0
sg11
I0
sa(dp206
g3
I0
sg4
I7
sg5
I1
sg6
I3
sg7
I1
sg8
I4991
sg9
I11
sg10
I1
sg11
I0
sa(dp207
g3
I0
sg4
I37
sg5
I2
sg6
I23
sg7
I10
sg8
I1170
sg9
I6
sg10
I0
sg11
I0
sa(dp208
g3
I1
sg4
I18
sg5
I3
sg6
I23
sg7
I9
sg8
I21837
sg9
I14
sg10
I0
sg11
I0
sa(dp209
g3
I0
sg4
I0
sg5
I0
sg6
I0
sg7
I0
sg8
I14235
sg9
I16
sg10
I0
sg11
I0
sa(dp210
g3
I0
sg4
I38
sg5
I2
sg6
I9
sg7
I10
sg8
I21175
sg9
I15
sg10
I0
sg11
I0
sa(dp211
g3
I0
sg4
I0
sg5
I0
sg6
I0
sg7
I0
sg8
I6694
sg9
I13
sg10
I0
sg11
I0
sa(dp212
g3
I3
sg4
I226
sg5
I20
sg6
I122
sg7
I60
sg8
I14228
sg9
I13
sg10
I0
sg11
I0
sa(dp213
g3
I0
sg4
I0
sg5
I0
sg6
I0
sg7
I0
sg8
I5790
sg9
I14
sg10
I0
sg11
I0
sa(dp214
g3
I0
sg4
I68
sg5
I4
sg6
I33
sg7
I20
sg8
I24282
sg9
I2
sg10
I0
sg11
I0
sa(dp215
g3
I1
sg4
I246
sg5
I25
sg6
I232
sg7
I67
sg8
I21968
sg9
I14
sg10
I0
sg11
I1
sa(dp216
g3
I1
sg4
I22
sg5
I4
sg6
I18
sg7
I12
sg8
I3855
sg9
I3
sg10
I0
sg11
I0
sa(dp217
g8
I869
sa(dp218
g3
I0
sg4
I90
sg5
I1
sg6
I-3
sg7
I22
sg8
I15925
sg9
I4
sg10
I2
sg11
I0
sa(dp219
g3
I3
sg4
I696
sg5
I17
sg6
I156
sg7
I147
sg8
I2895
sg9
I18
sg10
I26
sg11
I0
sa(dp220
g3
I0
sg4
I20
sg5
I5
sg6
I46
sg7
I9
sg8
I24578
sg9
I2
sg10
I0
sg11
I1
sa(dp221
g3
I1
sg4
I339
sg5
I18
sg6
I144
sg7
I85
sg8
I738
sg9
I10
sg10
I0
sg11
I0
sa(dp222
g3
I0
sg4
I56
sg5
I0
sg6
I0
sg7
I11
sg8
I17132
sg9
I11
sg10
I0
sg11
I0
sa(dp223
g3
I1
sg4
I652
sg5
I23
sg6
I156
sg7
I144
sg8
I3473
sg9
I11
sg10
I0
sg11
I0
sa(dp224
g3
I1
sg4
I56
sg5
I0
sg6
I0
sg7
I19
sg8
I1700
sg9
I5
sg10
I0
sg11
I0
sa(dp225
g3
I0
sg4
I0
sg5
I0
sg6
I0
sg7
I1
sg8
I20987
sg9
I7
sg10
I0
sg11
I0
sa(dp226
g3
I1
sg4
I96
sg5
I12
sg6
I53
sg7
I29
sg8
I18914
sg9
I11
sg10
I0
sg11
I1
sa(dp227
g3
I0
sg4
I0
sg5
I0
sg6
I0
sg7
I0
sg8
I8547
sg9
I6
sg10
I0
sg11
I0
sa(dp228
g3
I0
sg4
I212
sg5
I16
sg6
I133
sg7
I67
sg8
I11463
sg9
I16
sg10
I0
sg11
I3
sa(dp229
g3
I4
sg4
I396
sg5
I10
sg6
I57
sg7
I106
sg8
I12543
sg9
I12
sg10
I0
sg11
I0
sa(dp230
g3
I0
sg4
I0
sg5
I1
sg6
I-1
sg7
I0
sg8
I17422
sg9
I16
sg10
I1
sg11
I0
sa(dp231
g3
I0
sg4
I0
sg5
I0
sg6
I0
sg7
I0
sg8
I2077
sg9
I1
sg10
I0
sg11
I0
sa(dp232
g3
I1
sg4
I116
sg5
I1
sg6
I8
sg7
I28
sg8
I16335
sg9
I16
sg10
I0
sg11
I0
sa(dp233
g3
I4
sg4
I314
sg5
I10
sg6
I136
sg7
I103
sg8
I18282
sg9
I11
sg10
I0
sg11
I1
sa(dp234
g3
I2
sg4
I204
sg5
I6
sg6
I61
sg7
I71
sg8
I18962
sg9
I14
sg10
I0
sg11
I0
sa(dp235
g3
I0
sg4
I0
sg5
I0
sg6
I0
sg7
I0
sg8
I1301
sg9
I1
sg10
I0
sg11
I0
sa(dp236
g3
I0
sg4
I40
sg5
I0
sg6
I0
sg7
I7
sg8
I9109
sg9
I8
sg10
I0
sg11
I0
sa(dp237
g3
I0
sg4
I409
sg5
I11
sg6
I66
sg7
I87
sg8
I24289
sg9
I15
sg10
I0
sg11
I1
sa(dp238
g3
I0
sg4
I6
sg5
I1
sg6
I6
sg7
I5
sg8
I17589
sg9
I2
sg10
I0
sg11
I0
sa(dp239
g3
I0
sg4
I25
sg5
I0
sg6
I0
sg7
I4
sg8
I11327
sg9
I11
sg10
I0
sg11
I0
sa(dp240
g3
I0
sg4
I6
sg5
I7
sg6
I76
sg7
I2
sg8
I23444
sg9
I16
sg10
I12
sg11
I1
sa(dp241
g3
I5
sg4
I337
sg5
I25
sg6
I201
sg7
I87
sg8
I18679
sg9
I10
sg10
I0
sg11
I0
sa(dp242
g3
I0
sg4
I9
sg5
I1
sg6
I8
sg7
I4
sg8
I12312
sg9
I2
sg10
I2
sg11
I0
sa(dp243
g3
I0
sg4
I26
sg5
I0
sg6
I0
sg7
I14
sg8
I17530
sg9
I8
sg10
I0
sg11
I0
sa(dp244
g3
I0
sg4
I405
sg5
I10
sg6
I79
sg7
I100
sg8
I8518
sg9
I11
sg10
I13
sg11
I0
sa(dp245
g3
I0
sg4
I85
sg5
I5
sg6
I61
sg7
I16
sg8
I9530
sg9
I10
sg10
I0
sg11
I1
sa(dp246
g3
I0
sg4
I92
sg5
I0
sg6
I0
sg7
I23
sg8
I16072
sg9
I5
sg10
I0
sg11
I0
sa(dp247
g3
I0
sg4
I229
sg5
I0
sg6
I0
sg7
I71
sg8
I1693
sg9
I4
sg10
I0
sg11
I0
sa(dp248
g3
I1
sg4
I52
sg5
I6
sg6
I19
sg7
I19
sg8
I19520
sg9
I3
sg10
I0
sg11
I0
sa(dp249
g3
I4
sg4
I979
sg5
I13
sg6
I98
sg7
I184
sg8
I21795
sg9
I17
sg10
I19
sg11
I0
sa(dp250
g3
I0
sg4
I0
sg5
I0
sg6
I0
sg7
I0
sg8
I4126
sg9
I4
sg10
I0
sg11
I0
sa(dp251
g3
I0
sg4
I3
sg5
I0
sg6
I0
sg7
I1
sg8
I16265
sg9
I2
sg10
I0
sg11
I0
sa(dp252
g3
I2
sg4
I268
sg5
I1
sg6
I4
sg7
I51
sg8
I9285
sg9
I15
sg10
I0
sg11
I0
sa(dp253
g3
I0
sg4
I12
sg5
I1
sg6
I6
sg7
I2
sg8
I1249
sg9
I16
sg10
I3
sg11
I0
sa(dp254
g3
I0
sg4
I46
sg5
I1
sg6
I12
sg7
I7
sg8
I5000
sg9
I16
sg10
I0
sg11
I0
sa(dp255
g3
I3
sg4
I597
sg5
I50
sg6
I466
sg7
I149
sg8
I14953
sg9
I16
sg10
I0
sg11
I1
sa(dp256
g3
I2
sg4
I187
sg5
I13
sg6
I91
sg7
I45
sg8
I1604
sg9
I8
sg10
I0
sg11
I0
sa(dp257
g3
I2
sg4
I697
sg5
I30
sg6
I343
sg7
I181
sg8
I20332
sg9
I13
sg10
I0
sg11
I3
sa(dp258
g3
I2
sg4
I437
sg5
I1
sg6
I3
sg7
I126
sg8
I15834
sg9
I16
sg10
I0
sg11
I0
sa(dp259
g3
I1
sg4
I223
sg5
I3
sg6
I22
sg7
I61
sg8
I3052
sg9
I14
sg10
I0
sg11
I0
sa(dp260
g3
I0
sg4
I247
sg5
I15
sg6
I101
sg7
I62
sg8
I3357
sg9
I17
sg10
I0
sg11
I0
sa(dp261
g3
I2
sg4
I196
sg5
I7
sg6
I27
sg7
I51
sg8
I6815
sg9
I14
sg10
I0
sg11
I0
sa(dp262
g3
I1
sg4
I90
sg5
I3
sg6
I15
sg7
I17
sg8
I23793
sg9
I14
sg10
I0
sg11
I0
sa(dp263
g3
I0
sg4
I2
sg5
I0
sg6
I0
sg7
I1
sg8
I3688
sg9
I2
sg10
I0
sg11
I0
sa(dp264
g3
I0
sg4
I10
sg5
I0
sg6
I0
sg7
I2
sg8
I23811
sg9
I5
sg10
I0
sg11
I0
sa(dp265
g3
I10
sg4
I398
sg5
I6
sg6
I31
sg7
I111
sg8
I10730
sg9
I16
sg10
I0
sg11
I1
sa(dp266
g3
I7
sg4
I467
sg5
I24
sg6
I164
sg7
I140
sg8
I11405
sg9
I16
sg10
I0
sg11
I0
sa(dp267
g3
I0
sg4
I0
sg5
I0
sg6
I0
sg7
I0
sg8
I9872
sg9
I5
sg10
I0
sg11
I0
sa(dp268
g3
I8
sg4
I372
sg5
I16
sg6
I112
sg7
I101
sg8
I16032
sg9
I10
sg10
I20
sg11
I0
sa(dp269
g3
I0
sg4
I0
sg5
I0
sg6
I0
sg7
I0
sg8
I2707
sg9
I9
sg10
I0
sg11
I0
sa(dp270
g3
I0
sg4
I0
sg5
I0
sg6
I0
sg7
I0
sg8
I20940
sg9
I1
sg10
I0
sg11
I0
sa(dp271
g3
I1
sg4
I15
sg5
I1
sg6
I2
sg7
I5
sg8
I11135
sg9
I15
sg10
I0
sg11
I1
sa(dp272
g3
I0
sg4
I65
sg5
I3
sg6
I36
sg7
I24
sg8
I430
sg9
I10
sg10
I7
sg11
I0
sa(dp273
g3
I2
sg4
I379
sg5
I35
sg6
I346
sg7
I79
sg8
I11090
sg9
I15
sg10
I0
sg11
I3
sa(dp274
g3
I1
sg4
I157
sg5
I5
sg6
I12
sg7
I34
sg8
I16098
sg9
I16
sg10
I7
sg11
I0
sa(dp275
g3
I0
sg4
I1
sg5
I0
sg6
I0
sg7
I2
sg8
I9347
sg9
I5
sg10
I0
sg11
I0
sa(dp276
g3
I0
sg4
I4
sg5
I0
sg6
I0
sg7
I2
sg8
I10123
sg9
I11
sg10
I0
sg11
I0
sa(dp277
g3
I2
sg4
I308
sg5
I24
sg6
I134
sg7
I81
sg8
I3533
sg9
I16
sg10
I0
sg11
I2
sa(dp278
g3
I14
sg4
I805
sg5
I50
sg6
I513
sg7
I192
sg8
I323
sg9
I11
sg10
I0
sg11
I3
sa(dp279
g3
I2
sg4
I105
sg5
I6
sg6
I30
sg7
I33
sg8
I17267
sg9
I13
sg10
I10
sg11
I0
sa(dp280
g3
I10
sg4
I1143
sg5
I38
sg6
I364
sg7
I308
sg8
I6289
sg9
I17
sg10
I56
sg11
I3
sa(dp281
g3
I1
sg4
I227
sg5
I12
sg6
I98
sg7
I67
sg8
I6727
sg9
I11
sg10
I19
sg11
I1
sa(dp282
g3
I1
sg4
I88
sg5
I2
sg6
I19
sg7
I18
sg8
I8099
sg9
I6
sg10
I0
sg11
I0
sa(dp283
g3
I0
sg4
I14
sg5
I4
sg6
I23
sg7
I5
sg8
I13363
sg9
I9
sg10
I0
sg11
I0
sa(dp284
g3
I0
sg4
I0
sg5
I0
sg6
I0
sg7
I1
sg8
I12704
sg9
I2
sg10
I0
sg11
I0
sa(dp285
g3
I4
sg4
I476
sg5
I33
sg6
I204
sg7
I124
sg8
I13705
sg9
I14
sg10
I39
sg11
I0
sa(dp286
g3
I11
sg4
I1186
sg5
I33
sg6
I148
sg7
I228
sg8
I8278
sg9
I17
sg10
I42
sg11
I0
sa(dp287
g3
I3
sg4
I421
sg5
I19
sg6
I162
sg7
I95
sg8
I3113
sg9
I15
sg10
I30
sg11
I0
sa(dp288
g3
I0
sg4
I11
sg5
I2
sg6
I11
sg7
I7
sg8
I6683
sg9
I13
sg10
I0
sg11
I0
sa(dp289
g3
I0
sg4
I168
sg5
I16
sg6
I108
sg7
I62
sg8
I11322
sg9
I11
sg10
I0
sg11
I1
sa(dp290
g3
I0
sg4
I0
sg5
I0
sg6
I0
sg7
I0
sg8
I1310
sg9
I1
sg10
I0
sg11
I0
sa(dp291
g3
I0
sg4
I11
sg5
I0
sg6
I0
sg7
I2
sg8
I2404
sg9
I3
sg10
I0
sg11
I0
sa(dp292
g3
I0
sg4
I0
sg5
I0
sg6
I0
sg7
I0
sg8
I9772
sg9
I14
sg10
I0
sg11
I0
sa(dp293
g3
I0
sg4
I58
sg5
I2
sg6
I9
sg7
I17
sg8
I14922
sg9
I5
sg10
I0
sg11
I0
sa(dp294
g3
I0
sg4
I0
sg5
I0
sg6
I0
sg7
I0
sg8
I5392
sg9
I9
sg10
I0
sg11
I0
sa(dp295
g3
I0
sg4
I2
sg5
I0
sg6
I0
sg7
I1
sg8
I16226
sg9
I1
sg10
I0
sg11
I0
sa(dp296
g3
I0
sg4
I127
sg5
I17
sg6
I180
sg7
I32
sg8
I5974
sg9
I17
sg10
I0
sg11
I1
sa(dp297
g3
I0
sg4
I71
sg5
I0
sg6
I0
sg7
I15
sg8
I1976
sg9
I12
sg10
I0
sg11
I0
sa(dp298
g3
I0
sg4
I31
sg5
I0
sg6
I0
sg7
I7
sg8
I9460
sg9
I1
sg10
I0
sg11
I0
sa(dp299
g3
I0
sg4
I0
sg5
I3
sg6
I24
sg7
I0
sg8
I7107
sg9
I10
sg10
I0
sg11
I0
sa(dp300
g3
I0
sg4
I1
sg5
I0
sg6
I0
sg7
I1
sg8
I19156
sg9
I4
sg10
I0
sg11
I0
sa(dp301
g3
I1
sg4
I47
sg5
I1
sg6
I4
sg7
I14
sg8
I1265
sg9
I3
sg10
I5
sg11
I0
sa(dp302
g3
I0
sg4
I17
sg5
I7
sg6
I35
sg7
I5
sg8
I8570
sg9
I14
sg10
I14
sg11
I1
sa(dp303
g3
I0
sg4
I39
sg5
I5
sg6
I42
sg7
I11
sg8
I10761
sg9
I12
sg10
I0
sg11
I0
sa(dp304
g3
I0
sg4
I136
sg5
I8
sg6
I53
sg7
I29
sg8
I5504
sg9
I9
sg10
I0
sg11
I0
sa(dp305
g3
I2
sg4
I262
sg5
I35
sg6
I272
sg7
I66
sg8
I4185
sg9
I11
sg10
I49
sg11
I1
sa(dp306
g3
I1
sg4
I206
sg5
I10
sg6
I90
sg7
I68
sg8
I17231
sg9
I18
sg10
I0
sg11
I1
sa(dp307
g3
I0
sg4
I29
sg5
I2
sg6
I8
sg7
I12
sg8
I7937
sg9
I2
sg10
I0
sg11
I0
sa(dp308
g3
I2
sg4
I55
sg5
I3
sg6
I14
sg7
I18
sg8
I15120
sg9
I14
sg10
I0
sg11
I0
sa(dp309
g3
I0
sg4
I31
sg5
I0
sg6
I0
sg7
I12
sg8
I19504
sg9
I1
sg10
I0
sg11
I0
sa(dp310
g3
I0
sg4
I165
sg5
I10
sg6
I109
sg7
I40
sg8
I9398
sg9
I13
sg10
I0
sg11
I0
sa(dp311
g3
I0
sg4
I27
sg5
I4
sg6
I30
sg7
I10
sg8
I4141
sg9
I7
sg10
I9
sg11
I0
sa(dp312
g3
I0
sg4
I0
sg5
I0
sg6
I0
sg7
I0
sg8
I5082
sg9
I5
sg10
I0
sg11
I0
sa(dp313
g3
I0
sg4
I0
sg5
I0
sg6
I0
sg7
I0
sg8
I17878
sg9
I10
sg10
I0
sg11
I0
sa(dp314
g3
I1
sg4
I283
sg5
I5
sg6
I21
sg7
I52
sg8
I8469
sg9
I6
sg10
I0
sg11
I0
sa(dp315
g3
I0
sg4
I17
sg5
I0
sg6
I0
sg7
I2
sg8
I18886
sg9
I4
sg10
I0
sg11
I0
sa(dp316
g3
I0
sg4
I30
sg5
I3
sg6
I18
sg7
I7
sg8
I23443
sg9
I14
sg10
I4
sg11
I0
sa(dp317
g3
I0
sg4
I0
sg5
I0
sg6
I0
sg7
I0
sg8
I5623
sg9
I1
sg10
I0
sg11
I0
sa(dp318
g3
I1
sg4
I135
sg5
I0
sg6
I0
sg7
I32
sg8
I3723
sg9
I16
sg10
I0
sg11
I0
sa(dp319
g3
I0
sg4
I0
sg5
I0
sg6
I0
sg7
I0
sg8
I18358
sg9
I4
sg10
I0
sg11
I0
sa(dp320
g3
I0
sg4
I0
sg5
I0
sg6
I0
sg7
I0
sg8
I11376
sg9
I1
sg10
I0
sg11
I0
sa(dp321
g3
I0
sg4
I11
sg5
I1
sg6
I6
sg7
I6
sg8
I17068
sg9
I2
sg10
I0
sg11
I0
sa(dp322
g3
I1
sg4
I248
sg5
I30
sg6
I225
sg7
I65
sg8
I7342
sg9
I16
sg10
I37
sg11
I1
sa(dp323
g3
I0
sg4
I22
sg5
I0
sg6
I0
sg7
I14
sg8
I11801
sg9
I10
sg10
I0
sg11
I0
sa(dp324
g3
I0
sg4
I0
sg5
I0
sg6
I0
sg7
I0
sg8
I24496
sg9
I5
sg10
I0
sg11
I0
sa(dp325
g3
I3
sg4
I102
sg5
I20
sg6
I115
sg7
I47
sg8
I14648
sg9
I12
sg10
I0
sg11
I1
sa(dp326
g3
I0
sg4
I27
sg5
I0
sg6
I0
sg7
I2
sg8
I17133
sg9
I1
sg10
I0
sg11
I0
sa(dp327
g3
I0
sg4
I65
sg5
I3
sg6
I27
sg7
I20
sg8
I1866
sg9
I13
sg10
I0
sg11
I0
sa(dp328
g3
I0
sg4
I0
sg5
I0
sg6
I0
sg7
I0
sg8
I19115
sg9
I1
sg10
I0
sg11
I0
sa(dp329
g3
I2
sg4
I569
sg5
I18
sg6
I133
sg7
I152
sg8
I19486
sg9
I16
sg10
I23
sg11
I0
sa(dp330
g3
I1
sg4
I41
sg5
I7
sg6
I55
sg7
I23
sg8
I871
sg9
I13
sg10
I0
sg11
I0
sa(dp331
g3
I4
sg4
I133
sg5
I27
sg6
I260
sg7
I36
sg8
I10663
sg9
I15
sg10
I34
sg11
I0
sa(dp332
g3
I4
sg4
I410
sg5
I25
sg6
I183
sg7
I89
sg8
I15672
sg9
I14
sg10
I28
sg11
I1
sa(dp333
g3
I1
sg4
I215
sg5
I3
sg6
I34
sg7
I57
sg8
I3925
sg9
I15
sg10
I0
sg11
I1
sa(dp334
g3
I0
sg4
I52
sg5
I6
sg6
I27
sg7
I17
sg8
I9462
sg9
I8
sg10
I7
sg11
I0
sa(dp335
g3
I0
sg4
I148
sg5
I1
sg6
I1
sg7
I31
sg8
I20513
sg9
I8
sg10
I0
sg11
I0
sa(dp336
g3
I4
sg4
I417
sg5
I7
sg6
I29
sg7
I91
sg8
I9198
sg9
I11
sg10
I0
sg11
I0
sa(dp337
g8
I1630
sa(dp338
g3
I0
sg4
I37
sg5
I13
sg6
I102
sg7
I9
sg8
I21238
sg9
I18
sg10
I22
sg11
I1
sa(dp339
g3
I0
sg4
I0
sg5
I0
sg6
I0
sg7
I0
sg8
I20662
sg9
I8
sg10
I0
sg11
I0
sa(dp340
g3
I3
sg4
I490
sg5
I19
sg6
I304
sg7
I144
sg8
I11664
sg9
I13
sg10
I25
sg11
I1
sa(dp341
g3
I0
sg4
I0
sg5
I0
sg6
I0
sg7
I0
sg8
I11485
sg9
I6
sg10
I0
sg11
I0
sa(dp342
g3
I3
sg4
I432
sg5
I43
sg6
I417
sg7
I121
sg8
I6504
sg9
I18
sg10
I0
sg11
I1
sa(dp343
g3
I0
sg4
I65
sg5
I1
sg6
I27
sg7
I13
sg8
I14849
sg9
I6
sg10
I0
sg11
I1
sa(dp344
g3
I2
sg4
I117
sg5
I4
sg6
I43
sg7
I28
sg8
I16357
sg9
I19
sg10
I0
sg11
I0
sa(dp345
g3
I1
sg4
I4
sg5
I1
sg6
I9
sg7
I2
sg8
I1555
sg9
I15
sg10
I0
sg11
I0
sa(dp346
g3
I2
sg4
I162
sg5
I7
sg6
I33
sg7
I50
sg8
I24980
sg9
I12
sg10
I11
sg11
I0
sa(dp347
g3
I0
sg4
I51
sg5
I1
sg6
I6
sg7
I14
sg8
I17888
sg9
I3
sg10
I1
sg11
I0
sa(dp348
g3
I3
sg4
I414
sg5
I6
sg6
I62
sg7
I98
sg8
I1474
sg9
I10
sg10
I0
sg11
I0
sa(dp349
g3
I0
sg4
I107
sg5
I7
sg6
I87
sg7
I39
sg8
I12794
sg9
I7
sg10
I0
sg11
I0
sa(dp350
g3
I1
sg4
I536
sg5
I13
sg6
I103
sg7
I142
sg8
I14476
sg9
I15
sg10
I0
sg11
I0
sa(dp351
g3
I11
sg4
I800
sg5
I25
sg6
I204
sg7
I176
sg8
I5609
sg9
I15
sg10
I0
sg11
I2
sa(dp352
g3
I0
sg4
I0
sg5
I0
sg6
I0
sg7
I0
sg8
I23470
sg9
I4
sg10
I0
sg11
I0
sa(dp353
g3
I0
sg4
I62
sg5
I5
sg6
I26
sg7
I20
sg8
I5991
sg9
I14
sg10
I0
sg11
I0
sa(dp354
g3
I0
sg4
I74
sg5
I6
sg6
I32
sg7
I24
sg8
I20457
sg9
I6
sg10
I0
sg11
I1
sa(dp355
g3
I0
sg4
I0
sg5
I1
sg6
I8
sg7
I0
sg8
I19514
sg9
I16
sg10
I0
sg11
I0
sa(dp356
g3
I1
sg4
I106
sg5
I8
sg6
I120
sg7
I33
sg8
I13011
sg9
I12
sg10
I0
sg11
I0
sa(dp357
g3
I4
sg4
I499
sg5
I29
sg6
I285
sg7
I113
sg8
I14725
sg9
I13
sg10
I39
sg11
I0
sa(dp358
g3
I0
sg4
I191
sg5
I3
sg6
I20
sg7
I40
sg8
I14903
sg9
I11
sg10
I4
sg11
I0
sa(dp359
g3
I1
sg4
I49
sg5
I3
sg6
I50
sg7
I17
sg8
I22583
sg9
I16
sg10
I0
sg11
I0
sa(dp360
g3
I8
sg4
I1368
sg5
I23
sg6
I182
sg7
I335
sg8
I7763
sg9
I16
sg10
I28
sg11
I0
sa(dp361
g3
I0
sg4
I19
sg5
I2
sg6
I20
sg7
I7
sg8
I3269
sg9
I7
sg10
I2
sg11
I0
sa(dp362
g3
I0
sg4
I84
sg5
I1
sg6
I18
sg7
I14
sg8
I6422
sg9
I11
sg10
I0
sg11
I0
sa(dp363
g3
I0
sg4
I0
sg5
I0
sg6
I0
sg7
I0
sg8
I6848
sg9
I10
sg10
I0
sg11
I0
sa(dp364
g3
I0
sg4
I11
sg5
I0
sg6
I0
sg7
I5
sg8
I3957
sg9
I3
sg10
I0
sg11
I0
sa(dp365
g3
I0
sg4
I18
sg5
I1
sg6
I11
sg7
I4
sg8
I977
sg9
I2
sg10
I0
sg11
I0
sa(dp366
g3
I0
sg4
I23
sg5
I2
sg6
I23
sg7
I9
sg8
I9875
sg9
I8
sg10
I2
sg11
I0
sa(dp367
g3
I0
sg4
I0
sg5
I0
sg6
I0
sg7
I0
sg8
I9047
sg9
I16
sg10
I0
sg11
I0
sa(dp368
g3
I0
sg4
I85
sg5
I9
sg6
I117
sg7
I31
sg8
I24565
sg9
I13
sg10
I13
sg11
I0
sa(dp369
g3
I1
sg4
I129
sg5
I4
sg6
I13
sg7
I31
sg8
I8186
sg9
I10
sg10
I0
sg11
I0
sa(dp370
g3
I0
sg4
I0
sg5
I0
sg6
I0
sg7
I0
sg8
I22679
sg9
I1
sg10
I0
sg11
I0
sa(dp371
g3
I4
sg4
I1168
sg5
I14
sg6
I98
sg7
I297
sg8
I21221
sg9
I16
sg10
I0
sg11
I0
sa(dp372
g3
I3
sg4
I370
sg5
I5
sg6
I13
sg7
I97
sg8
I5251
sg9
I16
sg10
I0
sg11
I0
sa(dp373
g3
I0
sg4
I9
sg5
I4
sg6
I29
sg7
I4
sg8
I5374
sg9
I11
sg10
I5
sg11
I0
sa(dp374
g3
I2
sg4
I100
sg5
I1
sg6
I14
sg7
I21
sg8
I18
sg9
I7
sg10
I0
sg11
I0
sa(dp375
g3
I0
sg4
I-2
sg5
I0
sg6
I0
sg7
I1
sg8
I8525
sg9
I4
sg10
I0
sg11
I0
sa(dp376
g3
I0
sg4
I-2
sg5
I1
sg6
I0
sg7
I3
sg8
I8097
sg9
I5
sg10
I1
sg11
I0
sa(dp377
g3
I0
sg4
I32
sg5
I0
sg6
I0
sg7
I7
sg8
I19731
sg9
I3
sg10
I0
sg11
I0
sa(dp378
g3
I8
sg4
I1028
sg5
I47
sg6
I365
sg7
I261
sg8
I3943
sg9
I15
sg10
I0
sg11
I0
sa(dp379
g3
I0
sg4
I16
sg5
I1
sg6
I8
sg7
I4
sg8
I11440
sg9
I17
sg10
I0
sg11
I0
sa(dp380
g3
I0
sg4
I36
sg5
I8
sg6
I85
sg7
I13
sg8
I17375
sg9
I16
sg10
I0
sg11
I2
sa(dp381
g3
I0
sg4
I357
sg5
I27
sg6
I272
sg7
I67
sg8
I3772
sg9
I16
sg10
I39
sg11
I1
sa(dp382
g3
I0
sg4
I47
sg5
I1
sg6
I14
sg7
I9
sg8
I421
sg9
I6
sg10
I1
sg11
I0
sa(dp383
g3
I1
sg4
I453
sg5
I27
sg6
I191
sg7
I100
sg8
I9104
sg9
I13
sg10
I0
sg11
I0
sa(dp384
g3
I0
sg4
I30
sg5
I0
sg6
I0
sg7
I9
sg8
I5931
sg9
I13
sg10
I0
sg11
I0
sa(dp385
g3
I0
sg4
I210
sg5
I7
sg6
I74
sg7
I64
sg8
I22273
sg9
I7
sg10
I0
sg11
I1
sa(dp386
g3
I0
sg4
I12
sg5
I0
sg6
I0
sg7
I15
sg8
I8654
sg9
I4
sg10
I0
sg11
I0
sa(dp387
g3
I2
sg4
I597
sg5
I25
sg6
I183
sg7
I143
sg8
I10
sg9
I16
sg10
I38
sg11
I1
sa(dp388
g3
I0
sg4
I0
sg5
I1
sg6
I4
sg7
I0
sg8
I6184
sg9
I3
sg10
I2
sg11
I0
sa(dp389
g3
I0
sg4
I2
sg5
I0
sg6
I0
sg7
I2
sg8
I24413
sg9
I3
sg10
I0
sg11
I0
sa(dp390
g3
I0
sg4
I9
sg5
I1
sg6
I9
sg7
I1
sg8
I7177
sg9
I3
sg10
I0
sg11
I0
sa(dp391
g3
I0
sg4
I166
sg5
I45
sg6
I353
sg7
I43
sg8
I15887
sg9
I18
sg10
I56
sg11
I0
sa(dp392
g3
I0
sg4
I0
sg5
I0
sg6
I0
sg7
I0
sg8
I2056
sg9
I2
sg10
I0
sg11
I0
sa(dp393
g3
I0
sg4
I641
sg5
I33
sg6
I192
sg7
I184
sg8
I8145
sg9
I14
sg10
I37
sg11
I0
sa(dp394
g3
I5
sg4
I218
sg5
I7
sg6
I44
sg7
I26
sg8
I6416
sg9
I16
sg10
I13
sg11
I0
sa(dp395
g3
I0
sg4
I170
sg5
I5
sg6
I17
sg7
I56
sg8
I13546
sg9
I14
sg10
I0
sg11
I0
sa(dp396
g3
I4
sg4
I526
sg5
I19
sg6
I141
sg7
I116
sg8
I3355
sg9
I13
sg10
I0
sg11
I2
sa(dp397
g3
I0
sg4
I40
sg5
I1
sg6
I6
sg7
I11
sg8
I17864
sg9
I11
sg10
I0
sg11
I0
sa(dp398
g3
I4
sg4
I909
sg5
I19
sg6
I205
sg7
I194
sg8
I6523
sg9
I18
sg10
I0
sg11
I1
sa(dp399
g3
I0
sg4
I0
sg5
I1
sg6
I6
sg7
I0
sg8
I13295
sg9
I7
sg10
I0
sg11
I0
sa(dp400
g3
I0
sg4
I-2
sg5
I0
sg6
I0
sg7
I2
sg8
I15673
sg9
I4
sg10
I0
sg11
I0
sa(dp401
g3
I1
sg4
I84
sg5
I8
sg6
I45
sg7
I25
sg8
I12918
sg9
I5
sg10
I0
sg11
I0
sa(dp402
g3
I0
sg4
I151
sg5
I32
sg6
I345
sg7
I37
sg8
I5459
sg9
I16
sg10
I0
sg11
I2
sa(dp403
g3
I0
sg4
I0
sg5
I0
sg6
I0
sg7
I0
sg8
I23244
sg9
I5
sg10
I0
sg11
I0
sa(dp404
g3
I0
sg4
I0
sg5
I0
sg6
I0
sg7
I0
sg8
I13029
sg9
I7
sg10
I0
sg11
I0
sa(dp405
g3
I4
sg4
I585
sg5
I5
sg6
I49
sg7
I153
sg8
I11385
sg9
I14
sg10
I0
sg11
I0
sa(dp406
g3
I4
sg4
I52
sg5
I2
sg6
I23
sg7
I16
sg8
I5507
sg9
I12
sg10
I0
sg11
I0
sa(dp407
g3
I1
sg4
I286
sg5
I11
sg6
I91
sg7
I88
sg8
I207
sg9
I16
sg10
I0
sg11
I0
sa(dp408
g3
I1
sg4
I2
sg5
I0
sg6
I0
sg7
I2
sg8
I4623
sg9
I15
sg10
I0
sg11
I0
sa(dp409
g3
I1
sg4
I30
sg5
I0
sg6
I0
sg7
I16
sg8
I22169
sg9
I11
sg10
I0
sg11
I0
sa(dp410
g3
I0
sg4
I0
sg5
I4
sg6
I21
sg7
I0
sg8
I5338
sg9
I2
sg10
I5
sg11
I0
sa(dp411
g3
I1
sg4
I17
sg5
I10
sg6
I146
sg7
I2
sg8
I24210
sg9
I6
sg10
I0
sg11
I1
sa(dp412
g3
I1
sg4
I90
sg5
I5
sg6
I64
sg7
I22
sg8
I14993
sg9
I11
sg10
I0
sg11
I0
sa(dp413
g3
I3
sg4
I266
sg5
I2
sg6
I10
sg7
I30
sg8
I11580
sg9
I6
sg10
I2
sg11
I0
sa(dp414
g3
I14
sg4
I1487
sg5
I30
sg6
I261
sg7
I368
sg8
I14142
sg9
I16
sg10
I50
sg11
I1
sa(dp415
g3
I0
sg4
I45
sg5
I7
sg6
I60
sg7
I22
sg8
I21535
sg9
I16
sg10
I0
sg11
I0
sa(dp416
g3
I0
sg4
I0
sg5
I0
sg6
I0
sg7
I0
sg8
I20347
sg9
I3
sg10
I0
sg11
I0
sa(dp417
g3
I2
sg4
I506
sg5
I10
sg6
I67
sg7
I144
sg8
I772
sg9
I18
sg10
I15
sg11
I1
sa(dp418
g3
I0
sg4
I40
sg5
I0
sg6
I0
sg7
I7
sg8
I12817
sg9
I3
sg10
I0
sg11
I0
sa(dp419
g3
I0
sg4
I95
sg5
I2
sg6
I39
sg7
I22
sg8
I3549
sg9
I14
sg10
I0
sg11
I0
sa(dp420
g3
I2
sg4
I216
sg5
I2
sg6
I69
sg7
I44
sg8
I8784
sg9
I10
sg10
I2
sg11
I0
sa(dp421
g3
I0
sg4
I0
sg5
I0
sg6
I0
sg7
I0
sg8
I13619
sg9
I4
sg10
I0
sg11
I0
sa(dp422
g3
I0
sg4
I4
sg5
I0
sg6
I0
sg7
I5
sg8
I22010
sg9
I6
sg10
I0
sg11
I0
sa(dp423
g3
I3
sg4
I593
sg5
I13
sg6
I111
sg7
I158
sg8
I6065
sg9
I17
sg10
I21
sg11
I0
sa(dp424
g3
I11
sg4
I1238
sg5
I56
sg6
I451
sg7
I324
sg8
I4768
sg9
I17
sg10
I0
sg11
I1
sa(dp425
g3
I10
sg4
I1195
sg5
I28
sg6
I279
sg7
I222
sg8
I9167
sg9
I16
sg10
I0
sg11
I2
sa(dp426
g3
I0
sg4
I379
sg5
I61
sg6
I534
sg7
I104
sg8
I11246
sg9
I16
sg10
I74
sg11
I2
sa(dp427
g3
I1
sg4
I280
sg5
I11
sg6
I113
sg7
I74
sg8
I14819
sg9
I11
sg10
I16
sg11
I0
sa(dp428
g3
I0
sg4
I8
sg5
I0
sg6
I0
sg7
I6
sg8
I22221
sg9
I12
sg10
I0
sg11
I0
sa(dp429
g3
I0
sg4
I81
sg5
I27
sg6
I258
sg7
I14
sg8
I14704
sg9
I12
sg10
I37
sg11
I2
sa(dp430
g3
I6
sg4
I582
sg5
I10
sg6
I77
sg7
I143
sg8
I7485
sg9
I8
sg10
I12
sg11
I1
sa(dp431
g3
I7
sg4
I1100
sg5
I34
sg6
I277
sg7
I262
sg8
I1452
sg9
I16
sg10
I0
sg11
I1
sa(dp432
g3
I0
sg4
I94
sg5
I3
sg6
I17
sg7
I29
sg8
I24718
sg9
I16
sg10
I3
sg11
I0
sa(dp433
g3
I0
sg4
I0
sg5
I2
sg6
I11
sg7
I0
sg8
I509
sg9
I4
sg10
I2
sg11
I0
sa(dp434
g3
I0
sg4
I0
sg5
I0
sg6
I0
sg7
I0
sg8
I2799
sg9
I14
sg10
I0
sg11
I0
sa(dp435
g3
I1
sg4
I209
sg5
I9
sg6
I67
sg7
I74
sg8
I13899
sg9
I17
sg10
I0
sg11
I1
sa(dp436
g3
I0
sg4
I19
sg5
I3
sg6
I22
sg7
I1
sg8
I13694
sg9
I2
sg10
I3
sg11
I0
sa(dp437
g3
I2
sg4
I11
sg5
I1
sg6
I17
sg7
I14
sg8
I15806
sg9
I16
sg10
I0
sg11
I0
sa(dp438
g3
I4
sg4
I255
sg5
I15
sg6
I102
sg7
I85
sg8
I9131
sg9
I17
sg10
I19
sg11
I0
sa(dp439
g3
I4
sg4
I537
sg5
I36
sg6
I384
sg7
I119
sg8
I20778
sg9
I12
sg10
I0
sg11
I1
sa(dp440
g3
I4
sg4
I341
sg5
I12
sg6
I152
sg7
I99
sg8
I20206
sg9
I14
sg10
I0
sg11
I1
sa(dp441
g3
I0
sg4
I16
sg5
I1
sg6
I19
sg7
I9
sg8
I7285
sg9
I17
sg10
I0
sg11
I0
sa(dp442
g3
I0
sg4
I0
sg5
I0
sg6
I0
sg7
I0
sg8
I8910
sg9
I2
sg10
I0
sg11
I0
sa(dp443
g3
I0
sg4
I5
sg5
I4
sg6
I17
sg7
I3
sg8
I9154
sg9
I11
sg10
I6
sg11
I0
sa(dp444
g3
I1
sg4
I160
sg5
I15
sg6
I126
sg7
I43
sg8
I11638
sg9
I18
sg10
I0
sg11
I0
sa(dp445
g3
I0
sg4
I0
sg5
I0
sg6
I0
sg7
I0
sg8
I5169
sg9
I3
sg10
I0
sg11
I0
sa(dp446
g3
I0
sg4
I0
sg5
I0
sg6
I0
sg7
I0
sg8
I6098
sg9
I5
sg10
I0
sg11
I0
sa(dp447
g3
I7
sg4
I661
sg5
I23
sg6
I106
sg7
I172
sg8
I23869
sg9
I15
sg10
I0
sg11
I0
sa(dp448
g3
I0
sg4
I20
sg5
I0
sg6
I0
sg7
I6
sg8
I1663
sg9
I15
sg10
I0
sg11
I0
sa(dp449
g3
I9
sg4
I798
sg5
I34
sg6
I214
sg7
I215
sg8
I13211
sg9
I14
sg10
I49
sg11
I0
sa(dp450
g3
I1
sg4
I11
sg5
I3
sg6
I11
sg7
I6
sg8
I10360
sg9
I16
sg10
I0
sg11
I0
sa(dp451
g3
I0
sg4
I17
sg5
I0
sg6
I0
sg7
I3
sg8
I1711
sg9
I15
sg10
I0
sg11
I0
sa(dp452
g3
I0
sg4
I2
sg5
I1
sg6
I5
sg7
I2
sg8
I11792
sg9
I13
sg10
I2
sg11
I0
sa(dp453
g3
I1
sg4
I151
sg5
I6
sg6
I30
sg7
I34
sg8
I9150
sg9
I16
sg10
I0
sg11
I0
sa(dp454
g3
I0
sg4
I48
sg5
I2
sg6
I17
sg7
I18
sg8
I24996
sg9
I8
sg10
I2
sg11
I0
sa(dp455
g3
I5
sg4
I341
sg5
I37
sg6
I268
sg7
I93
sg8
I15851
sg9
I13
sg10
I48
sg11
I1
sa(dp456
g3
I0
sg4
I122
sg5
I14
sg6
I129
sg7
I33
sg8
I21833
sg9
I15
sg10
I22
sg11
I2
sa(dp457
g3
I3
sg4
I550
sg5
I5
sg6
I53
sg7
I146
sg8
I9420
sg9
I7
sg10
I5
sg11
I0
sa(dp458
g3
I0
sg4
I10
sg5
I1
sg6
I5
sg7
I3
sg8
I15432
sg9
I9
sg10
I0
sg11
I0
sa(dp459
g3
I4
sg4
I659
sg5
I23
sg6
I130
sg7
I155
sg8
I7508
sg9
I14
sg10
I0
sg11
I1
sa(dp460
g3
I0
sg4
I187
sg5
I4
sg6
I101
sg7
I38
sg8
I19704
sg9
I16
sg10
I0
sg11
I1
sa(dp461
g3
I2
sg4
I426
sg5
I11
sg6
I118
sg7
I72
sg8
I3197
sg9
I16
sg10
I0
sg11
I0
sa(dp462
g3
I0
sg4
I0
sg5
I5
sg6
I32
sg7
I0
sg8
I11159
sg9
I16
sg10
I0
sg11
I2
sa(dp463
g3
I0
sg4
I37
sg5
I6
sg6
I69
sg7
I12
sg8
I12853
sg9
I12
sg10
I0
sg11
I0
sa(dp464
g3
I1
sg4
I190
sg5
I5
sg6
I40
sg7
I38
sg8
I10912
sg9
I7
sg10
I7
sg11
I0
sa(dp465
g3
I0
sg4
I0
sg5
I0
sg6
I0
sg7
I0
sg8
I10508
sg9
I1
sg10
I0
sg11
I0
sa(dp466
g3
I0
sg4
I24
sg5
I0
sg6
I0
sg7
I6
sg8
I11983
sg9
I6
sg10
I0
sg11
I0
sa(dp467
g3
I0
sg4
I475
sg5
I24
sg6
I163
sg7
I98
sg8
I18602
sg9
I16
sg10
I36
sg11
I0
sa(dp468
g3
I0
sg4
I186
sg5
I14
sg6
I149
sg7
I40
sg8
I15299
sg9
I14
sg10
I0
sg11
I0
sa(dp469
g3
I4
sg4
I516
sg5
I15
sg6
I144
sg7
I155
sg8
I4936
sg9
I14
sg10
I0
sg11
I1
sa(dp470
g8
I24151
sa(dp471
g3
I0
sg4
I99
sg5
I11
sg6
I113
sg7
I56
sg8
I13010
sg9
I14
sg10
I0
sg11
I0
sa(dp472
g3
I2
sg4
I354
sg5
I11
sg6
I90
sg7
I74
sg8
I4458
sg9
I4
sg10
I16
sg11
I0
sa(dp473
g3
I0
sg4
I97
sg5
I1
sg6
I27
sg7
I35
sg8
I15228
sg9
I14
sg10
I0
sg11
I0
sa(dp474
g3
I0
sg4
I86
sg5
I0
sg6
I0
sg7
I26
sg8
I858
sg9
I18
sg10
I0
sg11
I0
sa(dp475
g3
I0
sg4
I0
sg5
I2
sg6
I4
sg7
I0
sg8
I11388
sg9
I9
sg10
I4
sg11
I0
sa(dp476
g3
I1
sg4
I363
sg5
I31
sg6
I331
sg7
I113
sg8
I2941
sg9
I14
sg10
I0
sg11
I0
sa(dp477
g3
I0
sg4
I125
sg5
I28
sg6
I237
sg7
I28
sg8
I2001
sg9
I8
sg10
I36
sg11
I0
sa(dp478
g3
I0
sg4
I1
sg5
I1
sg6
I6
sg7
I1
sg8
I17349
sg9
I11
sg10
I1
sg11
I0
sa(dp479
g3
I0
sg4
I1
sg5
I0
sg6
I0
sg7
I2
sg8
I21406
sg9
I4
sg10
I0
sg11
I0
sa(dp480
g3
I0
sg4
I22
sg5
I7
sg6
I58
sg7
I8
sg8
I12835
sg9
I14
sg10
I0
sg11
I0
sa(dp481
g3
I1
sg4
I178
sg5
I4
sg6
I29
sg7
I36
sg8
I5313
sg9
I14
sg10
I0
sg11
I0
sa(dp482
g3
I15
sg4
I1714
sg5
I15
sg6
I75
sg7
I377
sg8
I3324
sg9
I18
sg10
I0
sg11
I0
sa(dp483
g3
I2
sg4
I16
sg5
I3
sg6
I23
sg7
I8
sg8
I2568
sg9
I3
sg10
I0
sg11
I0
sa(dp484
g3
I0
sg4
I0
sg5
I0
sg6
I0
sg7
I0
sg8
I12246
sg9
I12
sg10
I0
sg11
I0
sa(dp485
g3
I0
sg4
I4
sg5
I9
sg6
I53
sg7
I2
sg8
I6799
sg9
I13
sg10
I9
sg11
I0
sa(dp486
g3
I0
sg4
I0
sg5
I0
sg6
I0
sg7
I0
sg8
I1157
sg9
I7
sg10
I0
sg11
I0
sa(dp487
g3
I0
sg4
I-3
sg5
I0
sg6
I0
sg7
I1
sg8
I20519
sg9
I10
sg10
I0
sg11
I0
sa(dp488
g3
I1
sg4
I150
sg5
I7
sg6
I44
sg7
I47
sg8
I17106
sg9
I3
sg10
I0
sg11
I0
sa(dp489
g3
I0
sg4
I8
sg5
I0
sg6
I0
sg7
I3
sg8
I18746
sg9
I18
sg10
I0
sg11
I0
sa(dp490
g3
I3
sg4
I278
sg5
I4
sg6
I7
sg7
I55
sg8
I15535
sg9
I7
sg10
I6
sg11
I0
sa(dp491
g3
I0
sg4
I75
sg5
I0
sg6
I0
sg7
I14
sg8
I11724
sg9
I11
sg10
I0
sg11
I0
sa(dp492
g3
I3
sg4
I230
sg5
I2
sg6
I12
sg7
I53
sg8
I14425
sg9
I15
sg10
I0
sg11
I0
sa(dp493
g3
I0
sg4
I2
sg5
I1
sg6
I17
sg7
I2
sg8
I24062
sg9
I6
sg10
I1
sg11
I0
sa(dp494
g3
I0
sg4
I456
sg5
I36
sg6
I316
sg7
I108
sg8
I18567
sg9
I15
sg10
I47
sg11
I0
sa(dp495
g3
I3
sg4
I540
sg5
I15
sg6
I100
sg7
I125
sg8
I12014
sg9
I17
sg10
I26
sg11
I1
sa(dp496
g3
I0
sg4
I10
sg5
I0
sg6
I0
sg7
I3
sg8
I19138
sg9
I3
sg10
I0
sg11
I0
sa(dp497
g3
I0
sg4
I6
sg5
I1
sg6
I9
sg7
I1
sg8
I16799
sg9
I11
sg10
I0
sg11
I0
sa(dp498
g3
I0
sg4
I0
sg5
I0
sg6
I0
sg7
I0
sg8
I8394
sg9
I3
sg10
I0
sg11
I0
sa(dp499
g3
I0
sg4
I0
sg5
I0
sg6
I0
sg7
I0
sg8
I275
sg9
I4
sg10
I0
sg11
I0
sa(dp500
g3
I1
sg4
I264
sg5
I3
sg6
I1
sg7
I76
sg8
I22166
sg9
I16
sg10
I0
sg11
I0
sa(dp501
g3
I0
sg4
I50
sg5
I1
sg6
I-5
sg7
I10
sg8
I11751
sg9
I9
sg10
I0
sg11
I0
sa(dp502
g3
I2
sg4
I354
sg5
I3
sg6
I13
sg7
I82
sg8
I15979
sg9
I12
sg10
I0
sg11
I0
sa(dp503
g3
I1
sg4
I240
sg5
I5
sg6
I59
sg7
I55
sg8
I15014
sg9
I13
sg10
I0
sg11
I0
sa(dp504
g3
I0
sg4
I266
sg5
I14
sg6
I122
sg7
I88
sg8
I9017
sg9
I10
sg10
I21
sg11
I0
sa(dp505
g3
I0
sg4
I1
sg5
I0
sg6
I0
sg7
I1
sg8
I5252
sg9
I3
sg10
I0
sg11
I0
sa(dp506
g3
I0
sg4
I55
sg5
I2
sg6
I44
sg7
I14
sg8
I4827
sg9
I9
sg10
I0
sg11
I0
sa(dp507
g3
I0
sg4
I7
sg5
I1
sg6
I11
sg7
I2
sg8
I13965
sg9
I2
sg10
I0
sg11
I0
sa(dp508
g3
I2
sg4
I30
sg5
I9
sg6
I84
sg7
I7
sg8
I7420
sg9
I12
sg10
I12
sg11
I1
sa(dp509
g3
I0
sg4
I3
sg5
I2
sg6
I13
sg7
I1
sg8
I1049
sg9
I5
sg10
I3
sg11
I0
sa(dp510
g3
I0
sg4
I379
sg5
I29
sg6
I258
sg7
I66
sg8
I15718
sg9
I12
sg10
I34
sg11
I0
sa(dp511
g3
I0
sg4
I0
sg5
I0
sg6
I0
sg7
I0
sg8
I14632
sg9
I3
sg10
I0
sg11
I0
sa(dp512
g3
I0
sg4
I0
sg5
I0
sg6
I0
sg7
I0
sg8
I10753
sg9
I1
sg10
I0
sg11
I0
sa(dp513
g3
I0
sg4
I0
sg5
I0
sg6
I0
sg7
I0
sg8
I24115
sg9
I9
sg10
I0
sg11
I0
sa(dp514
g3
I0
sg4
I0
sg5
I0
sg6
I0
sg7
I0
sg8
I11477
sg9
I7
sg10
I0
sg11
I0
sa(dp515
g3
I0
sg4
I4
sg5
I0
sg6
I0
sg7
I3
sg8
I1275
sg9
I8
sg10
I0
sg11
I0
sa(dp516
g3
I0
sg4
I0
sg5
I1
sg6
I9
sg7
I0
sg8
I19768
sg9
I15
sg10
I1
sg11
I0
sa(dp517
g3
I6
sg4
I832
sg5
I23
sg6
I200
sg7
I206
sg8
I14071
sg9
I17
sg10
I32
sg11
I1
sa(dp518
g3
I5
sg4
I581
sg5
I29
sg6
I331
sg7
I123
sg8
I1650
sg9
I14
sg10
I0
sg11
I1
sa(dp519
g3
I0
sg4
I0
sg5
I0
sg6
I0
sg7
I0
sg8
I18417
sg9
I1
sg10
I0
sg11
I0
sa(dp520
g3
I2
sg4
I480
sg5
I39
sg6
I299
sg7
I151
sg8
I4131
sg9
I16
sg10
I0
sg11
I0
sa(dp521
g3
I7
sg4
I1011
sg5
I22
sg6
I119
sg7
I284
sg8
I18535
sg9
I16
sg10
I30
sg11
I0
sa(dp522
g3
I0
sg4
I0
sg5
I0
sg6
I0
sg7
I0
sg8
I17811
sg9
I1
sg10
I0
sg11
I0
sa(dp523
g3
I2
sg4
I146
sg5
I8
sg6
I84
sg7
I45
sg8
I223
sg9
I14
sg10
I0
sg11
I0
sa(dp524
g3
I0
sg4
I42
sg5
I4
sg6
I54
sg7
I15
sg8
I1780
sg9
I7
sg10
I0
sg11
I0
sa(dp525
g3
I3
sg4
I313
sg5
I35
sg6
I252
sg7
I88
sg8
I9634
sg9
I11
sg10
I45
sg11
I0
sa(dp526
g3
I2
sg4
I167
sg5
I3
sg6
I19
sg7
I42
sg8
I24241
sg9
I4
sg10
I3
sg11
I0
sa(dp527
g3
I2
sg4
I154
sg5
I7
sg6
I41
sg7
I35
sg8
I6006
sg9
I2
sg10
I0
sg11
I0
sa(dp528
g3
I0
sg4
I3
sg5
I0
sg6
I0
sg7
I1
sg8
I6344
sg9
I6
sg10
I0
sg11
I0
sa(dp529
g3
I0
sg4
I4
sg5
I1
sg6
I15
sg7
I4
sg8
I1278
sg9
I13
sg10
I0
sg11
I1
sa(dp530
g3
I0
sg4
I70
sg5
I1
sg6
I6
sg7
I11
sg8
I11746
sg9
I13
sg10
I0
sg11
I0
sa(dp531
g3
I0
sg4
I89
sg5
I3
sg6
I11
sg7
I20
sg8
I7463
sg9
I9
sg10
I0
sg11
I0
sa(dp532
g3
I0
sg4
I21
sg5
I6
sg6
I29
sg7
I5
sg8
I19671
sg9
I15
sg10
I8
sg11
I0
sa(dp533
g3
I0
sg4
I0
sg5
I0
sg6
I0
sg7
I0
sg8
I248
sg9
I3
sg10
I0
sg11
I0
sa(dp534
g3
I0
sg4
I0
sg5
I0
sg6
I0
sg7
I0
sg8
I8094
sg9
I3
sg10
I0
sg11
I0
sa(dp535
g3
I0
sg4
I11
sg5
I1
sg6
I-3
sg7
I3
sg8
I483
sg9
I16
sg10
I0
sg11
I0
sa(dp536
g3
I4
sg4
I907
sg5
I32
sg6
I232
sg7
I207
sg8
I2723
sg9
I15
sg10
I47
sg11
I1
sa(dp537
g3
I0
sg4
I44
sg5
I6
sg6
I49
sg7
I11
sg8
I6066
sg9
I14
sg10
I0
sg11
I1
sa(dp538
g3
I0
sg4
I36
sg5
I5
sg6
I33
sg7
I8
sg8
I18206
sg9
I9
sg10
I7
sg11
I0
sa(dp539
g3
I0
sg4
I69
sg5
I1
sg6
I5
sg7
I19
sg8
I20713
sg9
I10
sg10
I1
sg11
I0
sa(dp540
g3
I0
sg4
I57
sg5
I0
sg6
I0
sg7
I20
sg8
I6109
sg9
I7
sg10
I0
sg11
I0
sa(dp541
g3
I0
sg4
I2
sg5
I0
sg6
I0
sg7
I1
sg8
I2011
sg9
I2
sg10
I0
sg11
I0
sa(dp542
g3
I0
sg4
I113
sg5
I11
sg6
I86
sg7
I27
sg8
I9327
sg9
I16
sg10
I0
sg11
I1
sa(dp543
g3
I0
sg4
I88
sg5
I8
sg6
I40
sg7
I22
sg8
I11058
sg9
I3
sg10
I0
sg11
I0
sa(dp544
g3
I2
sg4
I714
sg5
I42
sg6
I294
sg7
I165
sg8
I14352
sg9
I14
sg10
I0
sg11
I1
sa(dp545
g3
I1
sg4
I319
sg5
I9
sg6
I59
sg7
I112
sg8
I760
sg9
I13
sg10
I14
sg11
I0
sa(dp546
g3
I0
sg4
I87
sg5
I7
sg6
I62
sg7
I18
sg8
I11296
sg9
I10
sg10
I9
sg11
I0
sa(dp547
g3
I13
sg4
I1674
sg5
I16
sg6
I126
sg7
I378
sg8
I18995
sg9
I16
sg10
I0
sg11
I0
sa(dp548
g3
I0
sg4
I-5
sg5
I0
sg6
I0
sg7
I3
sg8
I16472
sg9
I3
sg10
I0
sg11
I0
sa(dp549
g3
I3
sg4
I368
sg5
I6
sg6
I37
sg7
I80
sg8
I3363
sg9
I17
sg10
I0
sg11
I0
sa(dp550
g3
I0
sg4
I6
sg5
I0
sg6
I0
sg7
I2
sg8
I18360
sg9
I1
sg10
I0
sg11
I0
sa(dp551
g3
I2
sg4
I329
sg5
I2
sg6
I14
sg7
I87
sg8
I20799
sg9
I14
sg10
I3
sg11
I0
sa(dp552
g3
I0
sg4
I84
sg5
I18
sg6
I141
sg7
I21
sg8
I2301
sg9
I13
sg10
I0
sg11
I0
sa(dp553
g3
I1
sg4
I113
sg5
I23
sg6
I156
sg7
I14
sg8
I22027
sg9
I12
sg10
I31
sg11
I0
sa(dp554
g3
I0
sg4
I4
sg5
I0
sg6
I0
sg7
I2
sg8
I17657
sg9
I8
sg10
I0
sg11
I0
sa(dp555
g3
I2
sg4
I655
sg5
I18
sg6
I171
sg7
I149
sg8
I14986
sg9
I12
sg10
I0
sg11
I1
sa(dp556
g3
I1
sg4
I146
sg5
I1
sg6
I-2
sg7
I52
sg8
I4125
sg9
I7
sg10
I2
sg11
I0
sa(dp557
g3
I0
sg4
I7
sg5
I0
sg6
I0
sg7
I4
sg8
I22170
sg9
I6
sg10
I0
sg11
I0
sa(dp558
g3
I0
sg4
I0
sg5
I0
sg6
I0
sg7
I0
sg8
I2845
sg9
I14
sg10
I0
sg11
I0
sa(dp559
g3
I0
sg4
I20
sg5
I2
sg6
I18
sg7
I11
sg8
I10055
sg9
I3
sg10
I0
sg11
I0
sa(dp560
g3
I5
sg4
I716
sg5
I1
sg6
I17
sg7
I137
sg8
I10701
sg9
I12
sg10
I1
sg11
I0
sa(dp561
g3
I11
sg4
I1259
sg5
I37
sg6
I264
sg7
I305
sg8
I12749
sg9
I16
sg10
I47
sg11
I0
sa(dp562
g3
I0
sg4
I0
sg5
I0
sg6
I0
sg7
I0
sg8
I9483
sg9
I2
sg10
I0
sg11
I0
sa(dp563
g3
I0
sg4
I0
sg5
I1
sg6
I14
sg7
I0
sg8
I10892
sg9
I3
sg10
I0
sg11
I0
sa(dp564
g3
I4
sg4
I646
sg5
I15
sg6
I90
sg7
I154
sg8
I11136
sg9
I14
sg10
I0
sg11
I1
sa(dp565
g3
I3
sg4
I199
sg5
I2
sg6
I7
sg7
I47
sg8
I19828
sg9
I3
sg10
I0
sg11
I0
sa(dp566
g3
I0
sg4
I9
sg5
I1
sg6
I18
sg7
I2
sg8
I9293
sg9
I5
sg10
I1
sg11
I0
sa(dp567
g3
I14
sg4
I867
sg5
I29
sg6
I507
sg7
I166
sg8
I19574
sg9
I14
sg10
I0
sg11
I6
sa(dp568
g3
I0
sg4
I3
sg5
I0
sg6
I0
sg7
I1
sg8
I4657
sg9
I9
sg10
I0
sg11
I0
sa(dp569
g3
I5
sg4
I474
sg5
I11
sg6
I46
sg7
I122
sg8
I10635
sg9
I10
sg10
I13
sg11
I0
sa(dp570
g3
I0
sg4
I129
sg5
I6
sg6
I36
sg7
I38
sg8
I23189
sg9
I13
sg10
I0
sg11
I1
sa(dp571
g3
I0
sg4
I0
sg5
I0
sg6
I0
sg7
I0
sg8
I15941
sg9
I11
sg10
I0
sg11
I0
sa(dp572
g3
I0
sg4
I0
sg5
I0
sg6
I0
sg7
I0
sg8
I23645
sg9
I6
sg10
I0
sg11
I0
sa(dp573
g3
I1
sg4
I67
sg5
I3
sg6
I59
sg7
I21
sg8
I24124
sg9
I14
sg10
I0
sg11
I0
sa(dp574
g3
I2
sg4
I184
sg5
I4
sg6
I15
sg7
I36
sg8
I17082
sg9
I11
sg10
I5
sg11
I0
sa(dp575
g3
I0
sg4
I0
sg5
I0
sg6
I0
sg7
I0
sg8
I24553
sg9
I9
sg10
I0
sg11
I0
sa(dp576
g3
I0
sg4
I-1
sg5
I0
sg6
I0
sg7
I4
sg8
I21097
sg9
I2
sg10
I0
sg11
I0
sa(dp577
g3
I0
sg4
I0
sg5
I1
sg6
I2
sg7
I1
sg8
I16797
sg9
I2
sg10
I0
sg11
I0
sa(dp578
g3
I8
sg4
I891
sg5
I12
sg6
I143
sg7
I195
sg8
I23582
sg9
I18
sg10
I16
sg11
I0
sa(dp579
g3
I0
sg4
I0
sg5
I0
sg6
I0
sg7
I0
sg8
I11297
sg9
I1
sg10
I0
sg11
I0
sa(dp580
g3
I0
sg4
I12
sg5
I0
sg6
I0
sg7
I7
sg8
I13629
sg9
I11
sg10
I0
sg11
I0
sa(dp581
g3
I1
sg4
I29
sg5
I0
sg6
I0
sg7
I12
sg8
I22308
sg9
I5
sg10
I0
sg11
I0
sa(dp582
g3
I4
sg4
I429
sg5
I35
sg6
I422
sg7
I116
sg8
I449
sg9
I12
sg10
I0
sg11
I2
sa(dp583
g3
I0
sg4
I0
sg5
I2
sg6
I7
sg7
I0
sg8
I8435
sg9
I10
sg10
I2
sg11
I1
sa(dp584
g3
I1
sg4
I359
sg5
I34
sg6
I261
sg7
I121
sg8
I9116
sg9
I14
sg10
I0
sg11
I2
sa(dp585
g3
I1
sg4
I94
sg5
I1
sg6
I8
sg7
I29
sg8
I14549
sg9
I3
sg10
I0
sg11
I0
sa(dp586
g3
I11
sg4
I531
sg5
I38
sg6
I261
sg7
I178
sg8
I9812
sg9
I20
sg10
I57
sg11
I2
sa(dp587
g3
I0
sg4
I0
sg5
I0
sg6
I0
sg7
I0
sg8
I24134
sg9
I9
sg10
I0
sg11
I0
sa(dp588
g3
I0
sg4
I89
sg5
I0
sg6
I0
sg7
I18
sg8
I4563
sg9
I16
sg10
I0
sg11
I0
sa(dp589
g3
I4
sg4
I844
sg5
I1
sg6
I4
sg7
I162
sg8
I8436
sg9
I17
sg10
I1
sg11
I0
sa(dp590
g3
I5
sg4
I577
sg5
I21
sg6
I166
sg7
I138
sg8
I24906
sg9
I14
sg10
I0
sg11
I1
sa(dp591
g3
I2
sg4
I106
sg5
I1
sg6
I4
sg7
I20
sg8
I16880
sg9
I11
sg10
I0
sg11
I0
sa(dp592
g3
I1
sg4
I205
sg5
I6
sg6
I38
sg7
I57
sg8
I15645
sg9
I15
sg10
I0
sg11
I0
sa(dp593
g3
I1
sg4
I465
sg5
I13
sg6
I125
sg7
I125
sg8
I17370
sg9
I12
sg10
I15
sg11
I1
sa(dp594
g3
I0
sg4
I2
sg5
I0
sg6
I0
sg7
I4
sg8
I20988
sg9
I3
sg10
I0
sg11
I0
sa(dp595
g3
I0
sg4
I4
sg5
I1
sg6
I11
sg7
I1
sg8
I111
sg9
I2
sg10
I1
sg11
I0
sa(dp596
g3
I0
sg4
I0
sg5
I0
sg6
I0
sg7
I0
sg8
I24505
sg9
I4
sg10
I0
sg11
I0
sa(dp597
g3
I0
sg4
I4
sg5
I0
sg6
I0
sg7
I2
sg8
I6348
sg9
I2
sg10
I0
sg11
I0
sa(dp598
g3
I0
sg4
I21
sg5
I0
sg6
I0
sg7
I6
sg8
I7901
sg9
I3
sg10
I0
sg11
I0
sa(dp599
g3
I0
sg4
I0
sg5
I0
sg6
I0
sg7
I0
sg8
I8531
sg9
I15
sg10
I0
sg11
I0
sa(dp600
g3
I0
sg4
I18
sg5
I3
sg6
I46
sg7
I5
sg8
I20782
sg9
I7
sg10
I0
sg11
I0
sa(dp601
g3
I0
sg4
I91
sg5
I5
sg6
I23
sg7
I21
sg8
I5674
sg9
I8
sg10
I0
sg11
I1
sa(dp602
g3
I0
sg4
I5
sg5
I0
sg6
I0
sg7
I2
sg8
I24204
sg9
I1
sg10
I0
sg11
I0
sa(dp603
g3
I0
sg4
I10
sg5
I0
sg6
I0
sg7
I3
sg8
I23267
sg9
I2
sg10
I0
sg11
I0
sa(dp604
g3
I0
sg4
I0
sg5
I0
sg6
I0
sg7
I0
sg8
I16216
sg9
I1
sg10
I0
sg11
I0
sa(dp605
g3
I0
sg4
I0
sg5
I0
sg6
I0
sg7
I0
sg8
I7155
sg9
I14
sg10
I0
sg11
I0
sa(dp606
g3
I0
sg4
I44
sg5
I1
sg6
I22
sg7
I16
sg8
I8972
sg9
I6
sg10
I0
sg11
I0
sa(dp607
g3
I2
sg4
I398
sg5
I6
sg6
I39
sg7
I71
sg8
I2224
sg9
I16
sg10
I11
sg11
I0
sa(dp608
g3
I3
sg4
I546
sg5
I22
sg6
I207
sg7
I128
sg8
I677
sg9
I14
sg10
I0
sg11
I1
sa(dp609
g3
I0
sg4
I0
sg5
I0
sg6
I0
sg7
I0
sg8
I17564
sg9
I1
sg10
I0
sg11
I0
sa(dp610
g3
I1
sg4
I55
sg5
I0
sg6
I0
sg7
I9
sg8
I22048
sg9
I7
sg10
I0
sg11
I0
sa(dp611
g3
I0
sg4
I37
sg5
I2
sg6
I31
sg7
I11
sg8
I15052
sg9
I11
sg10
I2
sg11
I0
sa(dp612
g3
I1
sg4
I107
sg5
I4
sg6
I30
sg7
I19
sg8
I7289
sg9
I11
sg10
I5
sg11
I0
sa(dp613
g3
I16
sg4
I1229
sg5
I33
sg6
I321
sg7
I259
sg8
I5830
sg9
I17
sg10
I0
sg11
I1
sa(dp614
g3
I0
sg4
I591
sg5
I32
sg6
I271
sg7
I161
sg8
I2869
sg9
I16
sg10
I46
sg11
I2
sa(dp615
g3
I0
sg4
I0
sg5
I1
sg6
I4
sg7
I4
sg8
I12995
sg9
I8
sg10
I1
sg11
I0
sa(dp616
g3
I7
sg4
I1219
sg5
I23
sg6
I189
sg7
I293
sg8
I22001
sg9
I15
sg10
I31
sg11
I0
sa(dp617
g3
I1
sg4
I18
sg5
I5
sg6
I56
sg7
I10
sg8
I24288
sg9
I9
sg10
I0
sg11
I0
sa(dp618
g3
I0
sg4
I74
sg5
I1
sg6
I11
sg7
I11
sg8
I14904
sg9
I13
sg10
I0
sg11
I0
sa(dp619
g3
I3
sg4
I111
sg5
I4
sg6
I44
sg7
I30
sg8
I21842
sg9
I12
sg10
I0
sg11
I2
sa(dp620
g3
I0
sg4
I0
sg5
I0
sg6
I0
sg7
I0
sg8
I17732
sg9
I7
sg10
I0
sg11
I0
sa(dp621
g3
I2
sg4
I379
sg5
I7
sg6
I54
sg7
I93
sg8
I7132
sg9
I9
sg10
I0
sg11
I0
sa(dp622
g3
I0
sg4
I0
sg5
I0
sg6
I0
sg7
I0
sg8
I13839
sg9
I1
sg10
I0
sg11
I0
sa(dp623
g3
I0
sg4
I74
sg5
I4
sg6
I28
sg7
I24
sg8
I24717
sg9
I5
sg10
I0
sg11
I0
sa(dp624
g3
I3
sg4
I317
sg5
I1
sg6
I3
sg7
I62
sg8
I22701
sg9
I15
sg10
I0
sg11
I0
sa(dp625
g3
I0
sg4
I0
sg5
I2
sg6
I13
sg7
I0
sg8
I13881
sg9
I4
sg10
I4
sg11
I0
sa(dp626
g3
I1
sg4
I95
sg5
I9
sg6
I73
sg7
I29
sg8
I23257
sg9
I13
sg10
I13
sg11
I0
sa(dp627
g3
I0
sg4
I0
sg5
I0
sg6
I0
sg7
I0
sg8
I13746
sg9
I1
sg10
I0
sg11
I0
sa(dp628
g3
I3
sg4
I261
sg5
I39
sg6
I309
sg7
I65
sg8
I24144
sg9
I15
sg10
I58
sg11
I2
sa(dp629
g3
I1
sg4
I475
sg5
I16
sg6
I147
sg7
I107
sg8
I24087
sg9
I16
sg10
I0
sg11
I2
sa(dp630
g3
I0
sg4
I0
sg5
I0
sg6
I0
sg7
I0
sg8
I11496
sg9
I1
sg10
I0
sg11
I0
sa(dp631
g3
I1
sg4
I322
sg5
I21
sg6
I167
sg7
I81
sg8
I7783
sg9
I15
sg10
I29
sg11
I0
sa(dp632
g3
I0
sg4
I8
sg5
I5
sg6
I23
sg7
I3
sg8
I19467
sg9
I2
sg10
I0
sg11
I0
sa(dp633
g3
I1
sg4
I514
sg5
I45
sg6
I353
sg7
I137
sg8
I309
sg9
I16
sg10
I62
sg11
I2
sa(dp634
g3
I0
sg4
I48
sg5
I4
sg6
I27
sg7
I13
sg8
I1523
sg9
I6
sg10
I0
sg11
I0
sa(dp635
g3
I7
sg4
I809
sg5
I8
sg6
I27
sg7
I182
sg8
I12837
sg9
I13
sg10
I13
sg11
I0
sa(dp636
g3
I2
sg4
I347
sg5
I26
sg6
I227
sg7
I70
sg8
I23971
sg9
I9
sg10
I0
sg11
I0
sa(dp637
g3
I0
sg4
I81
sg5
I2
sg6
I6
sg7
I22
sg8
I2550
sg9
I10
sg10
I0
sg11
I0
sa(dp638
g3
I0
sg4
I0
sg5
I0
sg6
I0
sg7
I0
sg8
I20145
sg9
I11
sg10
I0
sg11
I0
sa(dp639
g3
I10
sg4
I1702
sg5
I32
sg6
I336
sg7
I412
sg8
I13283
sg9
I20
sg10
I44
sg11
I0
sa(dp640
g3
I0
sg4
I0
sg5
I1
sg6
I11
sg7
I0
sg8
I14513
sg9
I10
sg10
I0
sg11
I0
sa(dp641
g3
I1
sg4
I114
sg5
I0
sg6
I0
sg7
I19
sg8
I405
sg9
I19
sg10
I0
sg11
I0
sa(dp642
g3
I3
sg4
I348
sg5
I0
sg6
I0
sg7
I115
sg8
I15608
sg9
I7
sg10
I0
sg11
I0
sa(dp643
g3
I0
sg4
I23
sg5
I2
sg6
I61
sg7
I10
sg8
I15590
sg9
I7
sg10
I0
sg11
I0
sa(dp644
g3
I10
sg4
I478
sg5
I11
sg6
I135
sg7
I124
sg8
I20986
sg9
I16
sg10
I0
sg11
I0
sa(dp645
g3
I0
sg4
I97
sg5
I2
sg6
I4
sg7
I30
sg8
I3199
sg9
I13
sg10
I2
sg11
I0
sa(dp646
g3
I0
sg4
I0
sg5
I0
sg6
I0
sg7
I0
sg8
I23122
sg9
I3
sg10
I0
sg11
I0
sa(dp647
g3
I0
sg4
I13
sg5
I0
sg6
I0
sg7
I4
sg8
I22564
sg9
I4
sg10
I0
sg11
I0
sa(dp648
g3
I0
sg4
I64
sg5
I9
sg6
I86
sg7
I15
sg8
I24616
sg9
I12
sg10
I15
sg11
I0
sa(dp649
g3
I9
sg4
I683
sg5
I7
sg6
I21
sg7
I170
sg8
I3182
sg9
I15
sg10
I0
sg11
I0
sa(dp650
g3
I1
sg4
I175
sg5
I9
sg6
I76
sg7
I49
sg8
I16224
sg9
I12
sg10
I0
sg11
I0
sa(dp651
g3
I0
sg4
I0
sg5
I0
sg6
I0
sg7
I0
sg8
I13005
sg9
I5
sg10
I0
sg11
I0
sa(dp652
g3
I0
sg4
I-4
sg5
I0
sg6
I0
sg7
I2
sg8
I3010
sg9
I1
sg10
I0
sg11
I0
sa(dp653
g3
I0
sg4
I0
sg5
I0
sg6
I0
sg7
I0
sg8
I20716
sg9
I1
sg10
I0
sg11
I0
sa(dp654
g3
I0
sg4
I17
sg5
I3
sg6
I32
sg7
I8
sg8
I11594
sg9
I4
sg10
I0
sg11
I0
sa(dp655
g3
I0
sg4
I0
sg5
I1
sg6
I13
sg7
I3
sg8
I4085
sg9
I3
sg10
I0
sg11
I1
sa(dp656
g3
I1
sg4
I88
sg5
I0
sg6
I0
sg7
I28
sg8
I4732
sg9
I16
sg10
I0
sg11
I0
sa(dp657
g3
I0
sg4
I78
sg5
I6
sg6
I68
sg7
I20
sg8
I4394
sg9
I6
sg10
I0
sg11
I0
sa(dp658
g3
I0
sg4
I42
sg5
I0
sg6
I0
sg7
I14
sg8
I24130
sg9
I10
sg10
I0
sg11
I0
sa(dp659
g3
I0
sg4
I0
sg5
I0
sg6
I0
sg7
I0
sg8
I9454
sg9
I1
sg10
I0
sg11
I0
sa(dp660
g3
I0
sg4
I141
sg5
I3
sg6
I12
sg7
I46
sg8
I9657
sg9
I6
sg10
I6
sg11
I0
sa(dp661
g3
I0
sg4
I72
sg5
I0
sg6
I0
sg7
I19
sg8
I6115
sg9
I7
sg10
I0
sg11
I0
sa(dp662
g3
I0
sg4
I80
sg5
I7
sg6
I71
sg7
I29
sg8
I997
sg9
I13
sg10
I0
sg11
I0
sa(dp663
g3
I0
sg4
I60
sg5
I14
sg6
I118
sg7
I20
sg8
I22199
sg9
I13
sg10
I0
sg11
I0
sa(dp664
g3
I0
sg4
I0
sg5
I0
sg6
I0
sg7
I0
sg8
I9804
sg9
I5
sg10
I0
sg11
I0
sa(dp665
g3
I0
sg4
I62
sg5
I5
sg6
I28
sg7
I20
sg8
I9064
sg9
I14
sg10
I0
sg11
I0
sa(dp666
g3
I0
sg4
I54
sg5
I2
sg6
I15
sg7
I9
sg8
I14564
sg9
I1
sg10
I5
sg11
I0
sa(dp667
g3
I7
sg4
I1320
sg5
I27
sg6
I223
sg7
I332
sg8
I10455
sg9
I19
sg10
I4
sg11
I1
sa(dp668
g3
I0
sg4
I0
sg5
I0
sg6
I0
sg7
I0
sg8
I21519
sg9
I10
sg10
I0
sg11
I0
sa(dp669
g3
I1
sg4
I132
sg5
I11
sg6
I112
sg7
I42
sg8
I21790
sg9
I8
sg10
I0
sg11
I1
sa(dp670
g3
I2
sg4
I179
sg5
I9
sg6
I46
sg7
I33
sg8
I5938
sg9
I17
sg10
I10
sg11
I0
sa(dp671
g3
I5
sg4
I648
sg5
I5
sg6
I10
sg7
I166
sg8
I9009
sg9
I13
sg10
I0
sg11
I0
sa(dp672
g3
I5
sg4
I279
sg5
I17
sg6
I153
sg7
I86
sg8
I23745
sg9
I15
sg10
I0
sg11
I1
sa(dp673
g3
I0
sg4
I6
sg5
I0
sg6
I0
sg7
I2
sg8
I20489
sg9
I6
sg10
I0
sg11
I0
sa(dp674
g3
I0
sg4
I0
sg5
I0
sg6
I0
sg7
I0
sg8
I15789
sg9
I13
sg10
I0
sg11
I0
sa(dp675
g3
I0
sg4
I81
sg5
I1
sg6
I7
sg7
I15
sg8
I1106
sg9
I13
sg10
I3
sg11
I0
sa(dp676
g3
I0
sg4
I7
sg5
I2
sg6
I23
sg7
I1
sg8
I9115
sg9
I4
sg10
I0
sg11
I0
sa(dp677
g3
I2
sg4
I176
sg5
I3
sg6
I24
sg7
I35
sg8
I9121
sg9
I17
sg10
I0
sg11
I0
sa(dp678
g3
I8
sg4
I1353
sg5
I17
sg6
I96
sg7
I286
sg8
I14385
sg9
I16
sg10
I0
sg11
I0
sa(dp679
g3
I1
sg4
I89
sg5
I20
sg6
I158
sg7
I23
sg8
I9908
sg9
I16
sg10
I20
sg11
I2
sa(dp680
g3
I0
sg4
I0
sg5
I0
sg6
I0
sg7
I0
sg8
I1485
sg9
I7
sg10
I0
sg11
I0
sa(dp681
g3
I0
sg4
I18
sg5
I0
sg6
I0
sg7
I8
sg8
I15840
sg9
I4
sg10
I0
sg11
I0
sa(dp682
g3
I14
sg4
I1470
sg5
I24
sg6
I282
sg7
I280
sg8
I19437
sg9
I15
sg10
I0
sg11
I0
sa(dp683
g3
I0
sg4
I0
sg5
I0
sg6
I0
sg7
I0
sg8
I14122
sg9
I1
sg10
I0
sg11
I0
sa(dp684
g3
I0
sg4
I42
sg5
I2
sg6
I17
sg7
I11
sg8
I11397
sg9
I5
sg10
I0
sg11
I1
sa(dp685
g3
I0
sg4
I0
sg5
I0
sg6
I0
sg7
I0
sg8
I3009
sg9
I1
sg10
I0
sg11
I0
sa(dp686
g3
I0
sg4
I26
sg5
I0
sg6
I0
sg7
I5
sg8
I24438
sg9
I14
sg10
I0
sg11
I0
sa(dp687
g3
I1
sg4
I196
sg5
I15
sg6
I101
sg7
I56
sg8
I7578
sg9
I16
sg10
I0
sg11
I0
sa(dp688
g3
I5
sg4
I274
sg5
I2
sg6
I11
sg7
I84
sg8
I7454
sg9
I11
sg10
I0
sg11
I0
sa(dp689
g3
I1
sg4
I121
sg5
I28
sg6
I405
sg7
I27
sg8
I10515
sg9
I16
sg10
I0
sg11
I1
sa(dp690
g3
I0
sg4
I6
sg5
I0
sg6
I0
sg7
I2
sg8
I11387
sg9
I1
sg10
I0
sg11
I0
sa(dp691
g3
I6
sg4
I378
sg5
I2
sg6
I9
sg7
I102
sg8
I13278
sg9
I18
sg10
I0
sg11
I0
sa(dp692
g3
I0
sg4
I0
sg5
I0
sg6
I0
sg7
I0
sg8
I298
sg9
I2
sg10
I0
sg11
I0
sa(dp693
g3
I3
sg4
I149
sg5
I10
sg6
I73
sg7
I58
sg8
I9964
sg9
I14
sg10
I0
sg11
I0
sa(dp694
g3
I0
sg4
I53
sg5
I0
sg6
I0
sg7
I14
sg8
I19575
sg9
I5
sg10
I0
sg11
I0
sa(dp695
g3
I0
sg4
I18
sg5
I12
sg6
I137
sg7
I5
sg8
I1475
sg9
I16
sg10
I0
sg11
I1
sa(dp696
g3
I4
sg4
I772
sg5
I40
sg6
I546
sg7
I190
sg8
I3026
sg9
I15
sg10
I0
sg11
I4
sa(dp697
g3
I1
sg4
I268
sg5
I19
sg6
I122
sg7
I51
sg8
I22155
sg9
I14
sg10
I0
sg11
I0
sa(dp698
g3
I0
sg4
I9
sg5
I0
sg6
I0
sg7
I4
sg8
I12242
sg9
I1
sg10
I0
sg11
I0
sa(dp699
g3
I0
sg4
I115
sg5
I8
sg6
I71
sg7
I36
sg8
I21897
sg9
I16
sg10
I9
sg11
I0
sa(dp700
g3
I0
sg4
I0
sg5
I0
sg6
I0
sg7
I0
sg8
I19675
sg9
I2
sg10
I0
sg11
I0
sa(dp701
g3
I1
sg4
I23
sg5
I5
sg6
I48
sg7
I9
sg8
I5102
sg9
I11
sg10
I6
sg11
I0
sa(dp702
g3
I0
sg4
I0
sg5
I0
sg6
I0
sg7
I0
sg8
I10822
sg9
I2
sg10
I0
sg11
I0
sa(dp703
g3
I2
sg4
I905
sg5
I18
sg6
I155
sg7
I233
sg8
I967
sg9
I17
sg10
I29
sg11
I1
sa(dp704
g3
I2
sg4
I563
sg5
I6
sg6
I49
sg7
I120
sg8
I335
sg9
I15
sg10
I0
sg11
I1
sa(dp705
g3
I0
sg4
I0
sg5
I0
sg6
I0
sg7
I0
sg8
I5023
sg9
I1
sg10
I0
sg11
I0
sa(dp706
g3
I2
sg4
I818
sg5
I22
sg6
I173
sg7
I211
sg8
I6836
sg9
I16
sg10
I0
sg11
I0
sa(dp707
g3
I2
sg4
I377
sg5
I5
sg6
I18
sg7
I101
sg8
I3565
sg9
I16
sg10
I8
sg11
I0
sa(dp708
g3
I0
sg4
I5
sg5
I0
sg6
I0
sg7
I2
sg8
I14368
sg9
I5
sg10
I0
sg11
I0
sa(dp709
g3
I0
sg4
I319
sg5
I4
sg6
I37
sg7
I91
sg8
I4331
sg9
I11
sg10
I0
sg11
I0
sa(dp710
g3
I0
sg4
I0
sg5
I0
sg6
I0
sg7
I0
sg8
I7626
sg9
I5
sg10
I0
sg11
I0
sa(dp711
g3
I0
sg4
I233
sg5
I25
sg6
I226
sg7
I54
sg8
I3138
sg9
I14
sg10
I0
sg11
I2
sa(dp712
g3
I0
sg4
I0
sg5
I0
sg6
I0
sg7
I0
sg8
I15801
sg9
I5
sg10
I0
sg11
I0
sa(dp713
g3
I0
sg4
I20
sg5
I20
sg6
I136
sg7
I15
sg8
I6828
sg9
I16
sg10
I26
sg11
I0
sa(dp714
g3
I0
sg4
I0
sg5
I1
sg6
I8
sg7
I0
sg8
I19188
sg9
I5
sg10
I1
sg11
I0
sa(dp715
g3
I1
sg4
I20
sg5
I0
sg6
I0
sg7
I3
sg8
I6307
sg9
I7
sg10
I0
sg11
I0
sa(dp716
g3
I5
sg4
I695
sg5
I21
sg6
I213
sg7
I192
sg8
I19029
sg9
I14
sg10
I0
sg11
I0
sa(dp717
g3
I0
sg4
I42
sg5
I0
sg6
I0
sg7
I11
sg8
I3818
sg9
I5
sg10
I0
sg11
I0
sa(dp718
g3
I0
sg4
I7
sg5
I0
sg6
I0
sg7
I2
sg8
I10110
sg9
I3
sg10
I0
sg11
I0
sa(dp719
g3
I0
sg4
I31
sg5
I1
sg6
I15
sg7
I12
sg8
I21162
sg9
I10
sg10
I1
sg11
I0
sa(dp720
g3
I0
sg4
I0
sg5
I0
sg6
I0
sg7
I0
sg8
I11110
sg9
I19
sg10
I0
sg11
I0
sa(dp721
g3
I0
sg4
I0
sg5
I0
sg6
I0
sg7
I0
sg8
I12356
sg9
I7
sg10
I0
sg11
I0
sa(dp722
g3
I0
sg4
I0
sg5
I0
sg6
I0
sg7
I0
sg8
I7582
sg9
I2
sg10
I0
sg11
I0
sa(dp723
g3
I0
sg4
I0
sg5
I0
sg6
I0
sg7
I2
sg8
I17806
sg9
I6
sg10
I0
sg11
I0
sa(dp724
g3
I0
sg4
I39
sg5
I3
sg6
I68
sg7
I6
sg8
I1873
sg9
I7
sg10
I0
sg11
I0
sa(dp725
g3
I0
sg4
I41
sg5
I2
sg6
I22
sg7
I14
sg8
I9027
sg9
I6
sg10
I0
sg11
I0
sa(dp726
g3
I0
sg4
I57
sg5
I2
sg6
I21
sg7
I17
sg8
I10821
sg9
I5
sg10
I0
sg11
I1
sa(dp727
g3
I1
sg4
I18
sg5
I16
sg6
I167
sg7
I9
sg8
I20301
sg9
I14
sg10
I17
sg11
I3
sa(dp728
g3
I0
sg4
I20
sg5
I0
sg6
I0
sg7
I7
sg8
I22981
sg9
I14
sg10
I0
sg11
I0
sa(dp729
g3
I3
sg4
I440
sg5
I10
sg6
I64
sg7
I135
sg8
I11775
sg9
I16
sg10
I0
sg11
I0
sa(dp730
g3
I2
sg4
I178
sg5
I7
sg6
I53
sg7
I46
sg8
I1537
sg9
I15
sg10
I11
sg11
I0
sa(dp731
g3
I4
sg4
I555
sg5
I58
sg6
I487
sg7
I171
sg8
I1665
sg9
I16
sg10
I80
sg11
I2
sa(dp732
g3
I0
sg4
I2
sg5
I0
sg6
I0
sg7
I1
sg8
I1921
sg9
I1
sg10
I0
sg11
I0
sa(dp733
g3
I0
sg4
I6
sg5
I0
sg6
I0
sg7
I3
sg8
I6394
sg9
I9
sg10
I0
sg11
I0
sa(dp734
g3
I1
sg4
I28
sg5
I1
sg6
I9
sg7
I9
sg8
I6847
sg9
I10
sg10
I0
sg11
I0
sa(dp735
g3
I0
sg4
I0
sg5
I0
sg6
I0
sg7
I0
sg8
I23261
sg9
I1
sg10
I0
sg11
I0
sa(dp736
g3
I3
sg4
I325
sg5
I7
sg6
I92
sg7
I65
sg8
I24270
sg9
I11
sg10
I0
sg11
I1
sa(dp737
g3
I7
sg4
I544
sg5
I19
sg6
I228
sg7
I169
sg8
I664
sg9
I14
sg10
I0
sg11
I2
sa(dp738
g3
I0
sg4
I49
sg5
I2
sg6
I15
sg7
I22
sg8
I8110
sg9
I8
sg10
I2
sg11
I0
sa(dp739
g3
I1
sg4
I355
sg5
I13
sg6
I105
sg7
I74
sg8
I9750
sg9
I11
sg10
I0
sg11
I0
sa(dp740
g3
I3
sg4
I540
sg5
I37
sg6
I330
sg7
I153
sg8
I1045
sg9
I13
sg10
I64
sg11
I1
sa(dp741
g3
I0
sg4
I0
sg5
I0
sg6
I0
sg7
I0
sg8
I609
sg9
I17
sg10
I0
sg11
I0
sa(dp742
g3
I7
sg4
I947
sg5
I28
sg6
I213
sg7
I247
sg8
I15773
sg9
I16
sg10
I41
sg11
I2
sa(dp743
g3
I0
sg4
I82
sg5
I3
sg6
I25
sg7
I18
sg8
I22855
sg9
I3
sg10
I0
sg11
I0
sa(dp744
g3
I0
sg4
I0
sg5
I0
sg6
I0
sg7
I1
sg8
I10534
sg9
I1
sg10
I0
sg11
I0
sa(dp745
g3
I1
sg4
I229
sg5
I2
sg6
I5
sg7
I48
sg8
I9070
sg9
I19
sg10
I0
sg11
I0
sa(dp746
g3
I1
sg4
I30
sg5
I1
sg6
I5
sg7
I9
sg8
I1185
sg9
I9
sg10
I0
sg11
I0
sa(dp747
g3
I5
sg4
I455
sg5
I8
sg6
I133
sg7
I97
sg8
I2020
sg9
I12
sg10
I0
sg11
I0
sa(dp748
g3
I0
sg4
I0
sg5
I0
sg6
I0
sg7
I0
sg8
I17790
sg9
I1
sg10
I0
sg11
I0
sa(dp749
g3
I0
sg4
I-8
sg5
I0
sg6
I0
sg7
I1
sg8
I2657
sg9
I11
sg10
I0
sg11
I0
sa(dp750
g3
I0
sg4
I13
sg5
I4
sg6
I17
sg7
I13
sg8
I21566
sg9
I12
sg10
I0
sg11
I0
sa(dp751
g3
I0
sg4
I6
sg5
I0
sg6
I0
sg7
I1
sg8
I2835
sg9
I2
sg10
I0
sg11
I0
sa(dp752
g3
I0
sg4
I110
sg5
I4
sg6
I13
sg7
I33
sg8
I5426
sg9
I12
sg10
I0
sg11
I0
sa(dp753
g3
I0
sg4
I50
sg5
I1
sg6
I11
sg7
I19
sg8
I16966
sg9
I11
sg10
I1
sg11
I0
sa(dp754
g3
I13
sg4
I941
sg5
I46
sg6
I436
sg7
I166
sg8
I11732
sg9
I16
sg10
I62
sg11
I2
sa(dp755
g3
I0
sg4
I0
sg5
I0
sg6
I0
sg7
I0
sg8
I3186
sg9
I9
sg10
I0
sg11
I0
sa(dp756
g3
I0
sg4
I2
sg5
I1
sg6
I3
sg7
I1
sg8
I12564
sg9
I3
sg10
I0
sg11
I0
sa(dp757
g3
I12
sg4
I737
sg5
I76
sg6
I837
sg7
I151
sg8
I23099
sg9
I16
sg10
I0
sg11
I2
sa(dp758
g3
I0
sg4
I0
sg5
I0
sg6
I0
sg7
I0
sg8
I682
sg9
I1
sg10
I0
sg11
I0
sa(dp759
g3
I0
sg4
I16
sg5
I24
sg6
I192
sg7
I5
sg8
I7818
sg9
I16
sg10
I0
sg11
I1
sa(dp760
g3
I1
sg4
I306
sg5
I12
sg6
I66
sg7
I60
sg8
I5813
sg9
I12
sg10
I0
sg11
I0
sa(dp761
g3
I2
sg4
I554
sg5
I7
sg6
I56
sg7
I195
sg8
I10778
sg9
I11
sg10
I10
sg11
I0
sa(dp762
g3
I1
sg4
I228
sg5
I30
sg6
I278
sg7
I65
sg8
I8141
sg9
I13
sg10
I38
sg11
I2
sa(dp763
g3
I0
sg4
I0
sg5
I0
sg6
I0
sg7
I0
sg8
I9424
sg9
I7
sg10
I0
sg11
I0
sa(dp764
g3
I0
sg4
I0
sg5
I0
sg6
I0
sg7
I0
sg8
I21117
sg9
I1
sg10
I0
sg11
I0
sa(dp765
g3
I0
sg4
I0
sg5
I0
sg6
I0
sg7
I0
sg8
I22014
sg9
I7
sg10
I0
sg11
I0
sa(dp766
g3
I1
sg4
I305
sg5
I5
sg6
I41
sg7
I89
sg8
I14713
sg9
I16
sg10
I10
sg11
I1
sa(dp767
g3
I0
sg4
I55
sg5
I0
sg6
I0
sg7
I10
sg8
I845
sg9
I3
sg10
I0
sg11
I0
sa(dp768
g3
I0
sg4
I0
sg5
I4
sg6
I37
sg7
I0
sg8
I20132
sg9
I14
sg10
I7
sg11
I0
sa(dp769
g3
I0
sg4
I9
sg5
I1
sg6
I10
sg7
I3
sg8
I9192
sg9
I7
sg10
I1
sg11
I0
sa(dp770
g3
I0
sg4
I2
sg5
I0
sg6
I0
sg7
I1
sg8
I4856
sg9
I1
sg10
I0
sg11
I0
sa(dp771
g3
I1
sg4
I175
sg5
I20
sg6
I188
sg7
I59
sg8
I14491
sg9
I13
sg10
I0
sg11
I2
sa(dp772
g3
I0
sg4
I0
sg5
I0
sg6
I0
sg7
I0
sg8
I7135
sg9
I12
sg10
I0
sg11
I0
sa(dp773
g3
I0
sg4
I0
sg5
I0
sg6
I0
sg7
I0
sg8
I195
sg9
I1
sg10
I0
sg11
I0
sa(dp774
g3
I1
sg4
I146
sg5
I13
sg6
I121
sg7
I36
sg8
I18232
sg9
I17
sg10
I0
sg11
I0
sa(dp775
g3
I2
sg4
I302
sg5
I8
sg6
I66
sg7
I81
sg8
I10260
sg9
I12
sg10
I10
sg11
I0
sa(dp776
g3
I1
sg4
I388
sg5
I12
sg6
I104
sg7
I56
sg8
I8248
sg9
I7
sg10
I0
sg11
I1
sa(dp777
g3
I1
sg4
I114
sg5
I4
sg6
I36
sg7
I29
sg8
I9840
sg9
I19
sg10
I0
sg11
I1
sa(dp778
g3
I0
sg4
I90
sg5
I2
sg6
I43
sg7
I26
sg8
I624
sg9
I14
sg10
I0
sg11
I1
sa(dp779
g3
I4
sg4
I612
sg5
I31
sg6
I265
sg7
I174
sg8
I1999
sg9
I16
sg10
I45
sg11
I1
sa(dp780
g3
I0
sg4
I3
sg5
I8
sg6
I62
sg7
I2
sg8
I4237
sg9
I15
sg10
I8
sg11
I1
sa(dp781
g3
I0
sg4
I0
sg5
I0
sg6
I0
sg7
I0
sg8
I18986
sg9
I13
sg10
I0
sg11
I0
sa(dp782
g3
I1
sg4
I22
sg5
I3
sg6
I29
sg7
I8
sg8
I15399
sg9
I6
sg10
I4
sg11
I0
sa(dp783
g3
I13
sg4
I1609
sg5
I63
sg6
I594
sg7
I389
sg8
I10902
sg9
I17
sg10
I86
sg11
I4
sa(dp784
g3
I0
sg4
I18
sg5
I1
sg6
I-3
sg7
I5
sg8
I24614
sg9
I3
sg10
I0
sg11
I0
sa(dp785
g3
I0
sg4
I0
sg5
I0
sg6
I0
sg7
I0
sg8
I22162
sg9
I4
sg10
I0
sg11
I0
sa(dp786
g3
I0
sg4
I0
sg5
I0
sg6
I0
sg7
I0
sg8
I210
sg9
I7
sg10
I0
sg11
I0
sa(dp787
g3
I2
sg4
I103
sg5
I1
sg6
I5
sg7
I27
sg8
I22255
sg9
I14
sg10
I0
sg11
I0
sa(dp788
g3
I0
sg4
I16
sg5
I2
sg6
I12
sg7
I3
sg8
I17644
sg9
I2
sg10
I0
sg11
I0
sa(dp789
g3
I8
sg4
I1023
sg5
I24
sg6
I128
sg7
I238
sg8
I18900
sg9
I14
sg10
I0
sg11
I1
sa(dp790
g3
I0
sg4
I52
sg5
I26
sg6
I162
sg7
I20
sg8
I23874
sg9
I10
sg10
I34
sg11
I0
sa(dp791
g3
I0
sg4
I77
sg5
I0
sg6
I0
sg7
I18
sg8
I5955
sg9
I15
sg10
I0
sg11
I0
sa(dp792
g3
I2
sg4
I370
sg5
I25
sg6
I139
sg7
I112
sg8
I648
sg9
I15
sg10
I34
sg11
I0
sa(dp793
g3
I0
sg4
I19
sg5
I1
sg6
I18
sg7
I4
sg8
I3917
sg9
I16
sg10
I0
sg11
I0
sa(dp794
g3
I0
sg4
I12
sg5
I2
sg6
I11
sg7
I5
sg8
I14
sg9
I15
sg10
I3
sg11
I0
sa(dp795
g3
I0
sg4
I244
sg5
I14
sg6
I60
sg7
I61
sg8
I23787
sg9
I13
sg10
I20
sg11
I0
sa(dp796
g3
I0
sg4
I6
sg5
I1
sg6
I1
sg7
I8
sg8
I11069
sg9
I16
sg10
I2
sg11
I0
sa(dp797
g3
I0
sg4
I57
sg5
I10
sg6
I73
sg7
I22
sg8
I20062
sg9
I16
sg10
I22
sg11
I0
sa(dp798
g3
I0
sg4
I-4
sg5
I5
sg6
I46
sg7
I1
sg8
I23770
sg9
I3
sg10
I0
sg11
I0
sa(dp799
g3
I0
sg4
I0
sg5
I0
sg6
I0
sg7
I0
sg8
I1907
sg9
I7
sg10
I0
sg11
I0
sa(dp800
g3
I1
sg4
I460
sg5
I25
sg6
I217
sg7
I114
sg8
I3566
sg9
I18
sg10
I0
sg11
I0
sa(dp801
g3
I0
sg4
I109
sg5
I2
sg6
I19
sg7
I20
sg8
I19848
sg9
I11
sg10
I0
sg11
I0
sa(dp802
g3
I0
sg4
I183
sg5
I23
sg6
I135
sg7
I36
sg8
I22700
sg9
I16
sg10
I0
sg11
I0
sa(dp803
g3
I13
sg4
I1303
sg5
I51
sg6
I621
sg7
I313
sg8
I20337
sg9
I16
sg10
I0
sg11
I3
sa(dp804
g3
I1
sg4
I103
sg5
I2
sg6
I30
sg7
I26
sg8
I6099
sg9
I6
sg10
I0
sg11
I0
sa(dp805
g3
I0
sg4
I64
sg5
I3
sg6
I10
sg7
I19
sg8
I14100
sg9
I3
sg10
I5
sg11
I0
sa(dp806
g3
I2
sg4
I118
sg5
I4
sg6
I35
sg7
I37
sg8
I17400
sg9
I14
sg10
I0
sg11
I0
sa(dp807
g3
I0
sg4
I13
sg5
I0
sg6
I0
sg7
I2
sg8
I9074
sg9
I6
sg10
I0
sg11
I0
sa(dp808
g3
I0
sg4
I21
sg5
I1
sg6
I7
sg7
I13
sg8
I17858
sg9
I2
sg10
I1
sg11
I0
sa(dp809
g3
I3
sg4
I688
sg5
I34
sg6
I219
sg7
I159
sg8
I10904
sg9
I16
sg10
I0
sg11
I0
sa(dp810
g3
I0
sg4
I43
sg5
I1
sg6
I6
sg7
I13
sg8
I48
sg9
I9
sg10
I0
sg11
I1
sa(dp811
g3
I0
sg4
I0
sg5
I1
sg6
I5
sg7
I0
sg8
I21720
sg9
I6
sg10
I1
sg11
I0
sa(dp812
g3
I2
sg4
I139
sg5
I0
sg6
I0
sg7
I23
sg8
I5305
sg9
I12
sg10
I0
sg11
I0
sa(dp813
g3
I2
sg4
I268
sg5
I59
sg6
I468
sg7
I76
sg8
I14460
sg9
I11
sg10
I84
sg11
I3
sa(dp814
g3
I0
sg4
I0
sg5
I0
sg6
I0
sg7
I0
sg8
I12851
sg9
I16
sg10
I0
sg11
I0
sa(dp815
g3
I0
sg4
I0
sg5
I0
sg6
I0
sg7
I0
sg8
I5832
sg9
I17
sg10
I0
sg11
I0
sa(dp816
g3
I0
sg4
I32
sg5
I3
sg6
I14
sg7
I6
sg8
I16185
sg9
I3
sg10
I3
sg11
I0
sa(dp817
g3
I0
sg4
I42
sg5
I3
sg6
I9
sg7
I13
sg8
I10194
sg9
I6
sg10
I0
sg11
I0
sa(dp818
g3
I0
sg4
I183
sg5
I11
sg6
I167
sg7
I57
sg8
I18077
sg9
I9
sg10
I0
sg11
I0
sa(dp819
g3
I0
sg4
I73
sg5
I0
sg6
I0
sg7
I13
sg8
I8214
sg9
I9
sg10
I0
sg11
I0
sa(dp820
g3
I0
sg4
I55
sg5
I1
sg6
I-2
sg7
I17
sg8
I10742
sg9
I8
sg10
I0
sg11
I0
sa(dp821
g3
I1
sg4
I490
sg5
I9
sg6
I62
sg7
I108
sg8
I11953
sg9
I16
sg10
I16
sg11
I0
sa(dp822
g3
I1
sg4
I203
sg5
I3
sg6
I14
sg7
I37
sg8
I13502
sg9
I3
sg10
I0
sg11
I0
sa(dp823
g3
I0
sg4
I10
sg5
I0
sg6
I0
sg7
I3
sg8
I24732
sg9
I2
sg10
I0
sg11
I0
sa(dp824
g3
I2
sg4
I133
sg5
I6
sg6
I54
sg7
I36
sg8
I24675
sg9
I13
sg10
I0
sg11
I0
sa(dp825
g3
I2
sg4
I165
sg5
I13
sg6
I87
sg7
I46
sg8
I12750
sg9
I15
sg10
I0
sg11
I2
sa(dp826
g3
I1
sg4
I462
sg5
I4
sg6
I17
sg7
I91
sg8
I18664
sg9
I17
sg10
I6
sg11
I0
sa(dp827
g3
I7
sg4
I1117
sg5
I49
sg6
I367
sg7
I237
sg8
I5308
sg9
I14
sg10
I82
sg11
I1
sa(dp828
g3
I0
sg4
I12
sg5
I2
sg6
I19
sg7
I4
sg8
I19444
sg9
I14
sg10
I0
sg11
I0
sa(dp829
g3
I0
sg4
I13
sg5
I2
sg6
I18
sg7
I5
sg8
I9260
sg9
I2
sg10
I0
sg11
I0
sa(dp830
g3
I0
sg4
I3
sg5
I8
sg6
I72
sg7
I1
sg8
I20111
sg9
I15
sg10
I9
sg11
I0
sa(dp831
g3
I0
sg4
I6
sg5
I0
sg6
I0
sg7
I2
sg8
I15923
sg9
I3
sg10
I0
sg11
I0
sa(dp832
g3
I0
sg4
I44
sg5
I1
sg6
I5
sg7
I12
sg8
I17792
sg9
I4
sg10
I2
sg11
I0
sa(dp833
g3
I0
sg4
I30
sg5
I0
sg6
I0
sg7
I7
sg8
I14760
sg9
I10
sg10
I0
sg11
I0
sa(dp834
g3
I1
sg4
I58
sg5
I8
sg6
I67
sg7
I20
sg8
I4728
sg9
I14
sg10
I0
sg11
I0
sa(dp835
g3
I0
sg4
I9
sg5
I0
sg6
I0
sg7
I2
sg8
I17964
sg9
I3
sg10
I0
sg11
I0
sa(dp836
g3
I2
sg4
I134
sg5
I2
sg6
I33
sg7
I29
sg8
I438
sg9
I16
sg10
I0
sg11
I0
sa(dp837
g3
I2
sg4
I643
sg5
I19
sg6
I214
sg7
I116
sg8
I10357
sg9
I13
sg10
I0
sg11
I2
sa(dp838
g3
I0
sg4
I209
sg5
I17
sg6
I154
sg7
I52
sg8
I16809
sg9
I18
sg10
I26
sg11
I0
sa(dp839
g3
I6
sg4
I298
sg5
I12
sg6
I89
sg7
I82
sg8
I5928
sg9
I12
sg10
I0
sg11
I2
sa(dp840
g3
I0
sg4
I25
sg5
I1
sg6
I5
sg7
I9
sg8
I24164
sg9
I2
sg10
I0
sg11
I0
sa(dp841
g3
I0
sg4
I144
sg5
I3
sg6
I118
sg7
I53
sg8
I9135
sg9
I6
sg10
I0
sg11
I1
sa(dp842
g3
I0
sg4
I369
sg5
I13
sg6
I128
sg7
I99
sg8
I22856
sg9
I14
sg10
I13
sg11
I0
sa(dp843
g3
I4
sg4
I1105
sg5
I14
sg6
I98
sg7
I216
sg8
I2456
sg9
I14
sg10
I0
sg11
I1
sa(dp844
g3
I2
sg4
I99
sg5
I7
sg6
I56
sg7
I30
sg8
I21464
sg9
I15
sg10
I0
sg11
I0
sa(dp845
g3
I0
sg4
I80
sg5
I1
sg6
I12
sg7
I17
sg8
I23482
sg9
I17
sg10
I3
sg11
I0
sa(dp846
g3
I0
sg4
I139
sg5
I4
sg6
I33
sg7
I28
sg8
I22814
sg9
I16
sg10
I0
sg11
I0
sa(dp847
g3
I0
sg4
I102
sg5
I5
sg6
I40
sg7
I23
sg8
I1616
sg9
I18
sg10
I0
sg11
I0
sa(dp848
g3
I0
sg4
I0
sg5
I0
sg6
I0
sg7
I0
sg8
I6415
sg9
I1
sg10
I0
sg11
I0
sa(dp849
g3
I0
sg4
I0
sg5
I0
sg6
I0
sg7
I0
sg8
I6012
sg9
I1
sg10
I0
sg11
I0
sa(dp850
g3
I1
sg4
I46
sg5
I5
sg6
I48
sg7
I5
sg8
I8390
sg9
I10
sg10
I0
sg11
I0
sa(dp851
g3
I0
sg4
I0
sg5
I0
sg6
I0
sg7
I0
sg8
I24191
sg9
I9
sg10
I0
sg11
I0
sa(dp852
g3
I0
sg4
I0
sg5
I0
sg6
I0
sg7
I0
sg8
I6153
sg9
I4
sg10
I0
sg11
I0
sa(dp853
g3
I8
sg4
I1031
sg5
I47
sg6
I351
sg7
I238
sg8
I24054
sg9
I14
sg10
I68
sg11
I0
sa(dp854
g3
I0
sg4
I65
sg5
I0
sg6
I0
sg7
I11
sg8
I19270
sg9
I16
sg10
I0
sg11
I0
sa(dp855
g3
I0
sg4
I211
sg5
I7
sg6
I40
sg7
I59
sg8
I3401
sg9
I16
sg10
I0
sg11
I0
sa(dp856
g3
I5
sg4
I309
sg5
I18
sg6
I108
sg7
I88
sg8
I5258
sg9
I17
sg10
I22
sg11
I1
sa(dp857
g3
I3
sg4
I362
sg5
I37
sg6
I373
sg7
I101
sg8
I6038
sg9
I12
sg10
I0
sg11
I1
sa(dp858
g3
I0
sg4
I0
sg5
I0
sg6
I0
sg7
I0
sg8
I13014
sg9
I4
sg10
I0
sg11
I0
sa(dp859
g3
I8
sg4
I462
sg5
I9
sg6
I96
sg7
I133
sg8
I19191
sg9
I14
sg10
I0
sg11
I0
sa(dp860
g3
I0
sg4
I2
sg5
I0
sg6
I0
sg7
I2
sg8
I10189
sg9
I2
sg10
I0
sg11
I0
sa(dp861
g3
I1
sg4
I162
sg5
I19
sg6
I103
sg7
I46
sg8
I17183
sg9
I9
sg10
I0
sg11
I0
sa(dp862
g3
I0
sg4
I2
sg5
I0
sg6
I0
sg7
I2
sg8
I9809
sg9
I10
sg10
I0
sg11
I0
sa(dp863
g3
I0
sg4
I92
sg5
I1
sg6
I-1
sg7
I27
sg8
I9783
sg9
I4
sg10
I1
sg11
I0
sa(dp864
g3
I2
sg4
I346
sg5
I1
sg6
I13
sg7
I80
sg8
I22968
sg9
I3
sg10
I0
sg11
I0
sa(dp865
g3
I2
sg4
I89
sg5
I3
sg6
I41
sg7
I21
sg8
I18747
sg9
I17
sg10
I3
sg11
I0
sa(dp866
g3
I4
sg4
I830
sg5
I9
sg6
I76
sg7
I147
sg8
I18248
sg9
I13
sg10
I11
sg11
I1
sa(dp867
g3
I7
sg4
I1115
sg5
I18
sg6
I184
sg7
I280
sg8
I13751
sg9
I13
sg10
I26
sg11
I0
sa(dp868
g3
I0
sg4
I19
sg5
I0
sg6
I0
sg7
I5
sg8
I15632
sg9
I2
sg10
I0
sg11
I0
sa(dp869
g3
I2
sg4
I313
sg5
I5
sg6
I41
sg7
I64
sg8
I242
sg9
I16
sg10
I11
sg11
I0
sa(dp870
g3
I0
sg4
I711
sg5
I26
sg6
I189
sg7
I179
sg8
I17844
sg9
I16
sg10
I34
sg11
I0
sa(dp871
g3
I1
sg4
I12
sg5
I3
sg6
I35
sg7
I6
sg8
I8858
sg9
I11
sg10
I4
sg11
I0
sa(dp872
g3
I0
sg4
I0
sg5
I0
sg6
I0
sg7
I0
sg8
I10642
sg9
I4
sg10
I0
sg11
I0
sa(dp873
g3
I3
sg4
I509
sg5
I26
sg6
I247
sg7
I135
sg8
I8414
sg9
I10
sg10
I0
sg11
I1
sa(dp874
g3
I15
sg4
I1508
sg5
I33
sg6
I364
sg7
I273
sg8
I17821
sg9
I16
sg10
I49
sg11
I2
sa(dp875
g3
I4
sg4
I263
sg5
I7
sg6
I36
sg7
I73
sg8
I9756
sg9
I11
sg10
I0
sg11
I1
sa(dp876
g3
I0
sg4
I375
sg5
I19
sg6
I171
sg7
I72
sg8
I5184
sg9
I14
sg10
I0
sg11
I0
sa(dp877
g3
I1
sg4
I16
sg5
I1
sg6
I-1
sg7
I16
sg8
I3888
sg9
I11
sg10
I1
sg11
I0
sa(dp878
g3
I0
sg4
I18
sg5
I1
sg6
I19
sg7
I5
sg8
I6164
sg9
I11
sg10
I3
sg11
I0
sa(dp879
g3
I2
sg4
I84
sg5
I2
sg6
I35
sg7
I19
sg8
I3937
sg9
I16
sg10
I0
sg11
I0
sa(dp880
g3
I2
sg4
I262
sg5
I5
sg6
I52
sg7
I45
sg8
I7881
sg9
I15
sg10
I0
sg11
I0
sa(dp881
g3
I0
sg4
I109
sg5
I1
sg6
I20
sg7
I32
sg8
I2213
sg9
I10
sg10
I2
sg11
I0
sa(dp882
g3
I2
sg4
I407
sg5
I22
sg6
I148
sg7
I112
sg8
I20688
sg9
I16
sg10
I30
sg11
I0
sa(dp883
g3
I0
sg4
I0
sg5
I0
sg6
I0
sg7
I0
sg8
I13020
sg9
I2
sg10
I0
sg11
I0
sa(dp884
g3
I2
sg4
I184
sg5
I10
sg6
I87
sg7
I46
sg8
I15772
sg9
I13
sg10
I15
sg11
I0
sa(dp885
g3
I0
sg4
I50
sg5
I0
sg6
I0
sg7
I22
sg8
I4137
sg9
I3
sg10
I0
sg11
I0
sa(dp886
g3
I1
sg4
I167
sg5
I4
sg6
I48
sg7
I36
sg8
I12945
sg9
I11
sg10
I0
sg11
I0
sa(dp887
g3
I3
sg4
I582
sg5
I36
sg6
I271
sg7
I160
sg8
I16794
sg9
I14
sg10
I45
sg11
I1
sa(dp888
g3
I0
sg4
I5
sg5
I1
sg6
I3
sg7
I1
sg8
I10430
sg9
I5
sg10
I1
sg11
I0
sa(dp889
g3
I0
sg4
I0
sg5
I5
sg6
I14
sg7
I0
sg8
I3667
sg9
I16
sg10
I5
sg11
I0
sa(dp890
g3
I0
sg4
I55
sg5
I10
sg6
I72
sg7
I15
sg8
I13848
sg9
I9
sg10
I12
sg11
I0
sa(dp891
g3
I2
sg4
I528
sg5
I15
sg6
I113
sg7
I169
sg8
I1894
sg9
I16
sg10
I18
sg11
I1
sa(dp892
g3
I0
sg4
I62
sg5
I1
sg6
I2
sg7
I17
sg8
I19012
sg9
I13
sg10
I0
sg11
I0
sa(dp893
g3
I0
sg4
I72
sg5
I2
sg6
I55
sg7
I18
sg8
I20735
sg9
I10
sg10
I3
sg11
I0
sa(dp894
g3
I1
sg4
I381
sg5
I7
sg6
I11
sg7
I130
sg8
I13425
sg9
I13
sg10
I0
sg11
I0
sa(dp895
g3
I1
sg4
I69
sg5
I0
sg6
I0
sg7
I15
sg8
I22426
sg9
I2
sg10
I0
sg11
I0
sa(dp896
g3
I1
sg4
I39
sg5
I2
sg6
I40
sg7
I18
sg8
I15866
sg9
I10
sg10
I0
sg11
I1
sa(dp897
g3
I0
sg4
I251
sg5
I6
sg6
I37
sg7
I53
sg8
I23972
sg9
I3
sg10
I0
sg11
I0
sa(dp898
g3
I0
sg4
I217
sg5
I19
sg6
I132
sg7
I60
sg8
I17883
sg9
I13
sg10
I25
sg11
I0
sa(dp899
g3
I0
sg4
I4
sg5
I2
sg6
I13
sg7
I6
sg8
I22000
sg9
I1
sg10
I0
sg11
I0
sa(dp900
g3
I0
sg4
I0
sg5
I0
sg6
I0
sg7
I0
sg8
I12270
sg9
I1
sg10
I0
sg11
I0
sa(dp901
g3
I0
sg4
I581
sg5
I12
sg6
I72
sg7
I165
sg8
I22024
sg9
I13
sg10
I16
sg11
I1
sa(dp902
g3
I3
sg4
I1121
sg5
I22
sg6
I246
sg7
I234
sg8
I5439
sg9
I15
sg10
I0
sg11
I0
sa(dp903
g3
I0
sg4
I211
sg5
I16
sg6
I121
sg7
I59
sg8
I23029
sg9
I12
sg10
I0
sg11
I1
sa(dp904
g3
I0
sg4
I0
sg5
I0
sg6
I0
sg7
I0
sg8
I15062
sg9
I1
sg10
I0
sg11
I0
sa(dp905
g3
I4
sg4
I62
sg5
I0
sg6
I0
sg7
I32
sg8
I6722
sg9
I13
sg10
I0
sg11
I0
sa(dp906
g3
I3
sg4
I292
sg5
I8
sg6
I75
sg7
I64
sg8
I15855
sg9
I14
sg10
I0
sg11
I1
sa(dp907
g3
I0
sg4
I0
sg5
I0
sg6
I0
sg7
I0
sg8
I21280
sg9
I2
sg10
I0
sg11
I0
sa(dp908
g3
I2
sg4
I468
sg5
I2
sg6
I7
sg7
I80
sg8
I20796
sg9
I10
sg10
I0
sg11
I0
sa(dp909
g3
I0
sg4
I0
sg5
I0
sg6
I0
sg7
I0
sg8
I11411
sg9
I2
sg10
I0
sg11
I0
sa(dp910
g3
I1
sg4
I118
sg5
I32
sg6
I198
sg7
I31
sg8
I7257
sg9
I16
sg10
I0
sg11
I0
sa(dp911
g3
I3
sg4
I399
sg5
I8
sg6
I74
sg7
I109
sg8
I7625
sg9
I10
sg10
I12
sg11
I0
sa(dp912
g3
I0
sg4
I0
sg5
I0
sg6
I0
sg7
I0
sg8
I1788
sg9
I2
sg10
I0
sg11
I0
sa(dp913
g3
I0
sg4
I-1
sg5
I0
sg6
I0
sg7
I2
sg8
I2540
sg9
I4
sg10
I0
sg11
I0
sa(dp914
g3
I0
sg4
I0
sg5
I1
sg6
I11
sg7
I0
sg8
I1022
sg9
I3
sg10
I1
sg11
I0
sa(dp915
g3
I0
sg4
I0
sg5
I0
sg6
I0
sg7
I0
sg8
I2265
sg9
I8
sg10
I0
sg11
I0
sa(dp916
g3
I2
sg4
I511
sg5
I35
sg6
I459
sg7
I132
sg8
I66
sg9
I18
sg10
I0
sg11
I2
sa(dp917
g3
I0
sg4
I0
sg5
I0
sg6
I0
sg7
I0
sg8
I11779
sg9
I1
sg10
I0
sg11
I0
sa(dp918
g3
I0
sg4
I9
sg5
I0
sg6
I0
sg7
I3
sg8
I11705
sg9
I11
sg10
I0
sg11
I0
sa(dp919
g3
I3
sg4
I160
sg5
I4
sg6
I24
sg7
I61
sg8
I11767
sg9
I9
sg10
I0
sg11
I0
sa(dp920
g3
I0
sg4
I0
sg5
I3
sg6
I17
sg7
I0
sg8
I2115
sg9
I3
sg10
I4
sg11
I0
sa(dp921
g3
I0
sg4
I0
sg5
I0
sg6
I0
sg7
I0
sg8
I8249
sg9
I15
sg10
I0
sg11
I0
sa(dp922
g3
I2
sg4
I288
sg5
I11
sg6
I85
sg7
I54
sg8
I1567
sg9
I15
sg10
I0
sg11
I0
sa(dp923
g3
I0
sg4
I32
sg5
I0
sg6
I0
sg7
I10
sg8
I10760
sg9
I3
sg10
I0
sg11
I0
sa(dp924
g3
I1
sg4
I18
sg5
I1
sg6
I10
sg7
I13
sg8
I3610
sg9
I6
sg10
I1
sg11
I0
sa(dp925
g3
I0
sg4
I0
sg5
I0
sg6
I0
sg7
I0
sg8
I22962
sg9
I13
sg10
I0
sg11
I0
sa(dp926
g3
I0
sg4
I52
sg5
I2
sg6
I8
sg7
I15
sg8
I15614
sg9
I6
sg10
I0
sg11
I0
sa(dp927
g3
I0
sg4
I0
sg5
I2
sg6
I8
sg7
I0
sg8
I20875
sg9
I1
sg10
I3
sg11
I0
sa(dp928
g3
I0
sg4
I40
sg5
I0
sg6
I0
sg7
I7
sg8
I13803
sg9
I12
sg10
I0
sg11
I0
sa(dp929
g3
I4
sg4
I564
sg5
I13
sg6
I56
sg7
I115
sg8
I2556
sg9
I16
sg10
I19
sg11
I0
sa(dp930
g3
I0
sg4
I335
sg5
I6
sg6
I53
sg7
I53
sg8
I8995
sg9
I16
sg10
I7
sg11
I1
sa(dp931
g3
I1
sg4
I44
sg5
I0
sg6
I0
sg7
I15
sg8
I2899
sg9
I17
sg10
I0
sg11
I0
sa(dp932
g3
I3
sg4
I475
sg5
I8
sg6
I56
sg7
I79
sg8
I22062
sg9
I17
sg10
I0
sg11
I0
sa(dp933
g3
I0
sg4
I62
sg5
I0
sg6
I0
sg7
I15
sg8
I10367
sg9
I13
sg10
I0
sg11
I0
sa(dp934
g3
I0
sg4
I0
sg5
I0
sg6
I0
sg7
I0
sg8
I3763
sg9
I3
sg10
I0
sg11
I0
sa(dp935
g3
I0
sg4
I25
sg5
I3
sg6
I25
sg7
I8
sg8
I6215
sg9
I4
sg10
I4
sg11
I0
sa(dp936
g3
I2
sg4
I194
sg5
I7
sg6
I54
sg7
I68
sg8
I2632
sg9
I7
sg10
I7
sg11
I0
sa(dp937
g3
I0
sg4
I294
sg5
I18
sg6
I183
sg7
I68
sg8
I11774
sg9
I14
sg10
I24
sg11
I2
sa(dp938
g3
I0
sg4
I138
sg5
I8
sg6
I26
sg7
I52
sg8
I18010
sg9
I13
sg10
I0
sg11
I0
sa(dp939
g3
I0
sg4
I22
sg5
I1
sg6
I6
sg7
I6
sg8
I7054
sg9
I17
sg10
I2
sg11
I0
sa(dp940
g3
I2
sg4
I202
sg5
I29
sg6
I300
sg7
I52
sg8
I2394
sg9
I17
sg10
I0
sg11
I1
sa(dp941
g3
I0
sg4
I53
sg5
I2
sg6
I0
sg7
I15
sg8
I19553
sg9
I8
sg10
I2
sg11
I0
sa(dp942
g3
I0
sg4
I0
sg5
I0
sg6
I0
sg7
I0
sg8
I6471
sg9
I3
sg10
I0
sg11
I0
sa(dp943
g3
I1
sg4
I104
sg5
I23
sg6
I184
sg7
I33
sg8
I15728
sg9
I11
sg10
I0
sg11
I0
sa(dp944
g3
I0
sg4
I11
sg5
I1
sg6
I8
sg7
I4
sg8
I15707
sg9
I1
sg10
I0
sg11
I0
sa(dp945
g3
I0
sg4
I0
sg5
I0
sg6
I0
sg7
I0
sg8
I6566
sg9
I2
sg10
I0
sg11
I0
sa(dp946
g3
I0
sg4
I18
sg5
I0
sg6
I0
sg7
I8
sg8
I10984
sg9
I3
sg10
I0
sg11
I0
sa(dp947
g3
I0
sg4
I44
sg5
I0
sg6
I0
sg7
I8
sg8
I11174
sg9
I13
sg10
I0
sg11
I0
sa(dp948
g3
I1
sg4
I734
sg5
I8
sg6
I55
sg7
I147
sg8
I17587
sg9
I20
sg10
I12
sg11
I0
sa(dp949
g3
I1
sg4
I259
sg5
I11
sg6
I83
sg7
I67
sg8
I24456
sg9
I8
sg10
I0
sg11
I0
sa(dp950
g3
I2
sg4
I365
sg5
I0
sg6
I0
sg7
I91
sg8
I6751
sg9
I7
sg10
I0
sg11
I0
sa(dp951
g3
I1
sg4
I150
sg5
I15
sg6
I145
sg7
I39
sg8
I7813
sg9
I14
sg10
I0
sg11
I0
sa(dp952
g3
I0
sg4
I25
sg5
I2
sg6
I22
sg7
I7
sg8
I12024
sg9
I3
sg10
I0
sg11
I0
sa(dp953
g3
I1
sg4
I264
sg5
I6
sg6
I18
sg7
I76
sg8
I9506
sg9
I6
sg10
I9
sg11
I0
sa(dp954
g3
I1
sg4
I31
sg5
I1
sg6
I6
sg7
I11
sg8
I2409
sg9
I17
sg10
I0
sg11
I0
sa(dp955
g3
I0
sg4
I35
sg5
I2
sg6
I17
sg7
I17
sg8
I18946
sg9
I3
sg10
I0
sg11
I0
sa(dp956
g3
I0
sg4
I40
sg5
I2
sg6
I9
sg7
I9
sg8
I18297
sg9
I3
sg10
I0
sg11
I0
sa(dp957
g3
I0
sg4
I0
sg5
I0
sg6
I0
sg7
I0
sg8
I24148
sg9
I1
sg10
I0
sg11
I0
sa(dp958
g3
I0
sg4
I38
sg5
I5
sg6
I23
sg7
I9
sg8
I23774
sg9
I3
sg10
I5
sg11
I0
sa(dp959
g3
I0
sg4
I5
sg5
I0
sg6
I0
sg7
I1
sg8
I20058
sg9
I2
sg10
I0
sg11
I0
sa(dp960
g3
I4
sg4
I655
sg5
I25
sg6
I160
sg7
I148
sg8
I959
sg9
I19
sg10
I34
sg11
I0
sa(dp961
g3
I2
sg4
I557
sg5
I47
sg6
I280
sg7
I144
sg8
I9222
sg9
I18
sg10
I66
sg11
I0
sa(dp962
g3
I1
sg4
I94
sg5
I1
sg6
I0
sg7
I27
sg8
I24135
sg9
I10
sg10
I2
sg11
I0
sa(dp963
g3
I0
sg4
I0
sg5
I1
sg6
I9
sg7
I0
sg8
I23600
sg9
I6
sg10
I0
sg11
I0
sa(dp964
g3
I1
sg4
I163
sg5
I11
sg6
I46
sg7
I47
sg8
I5303
sg9
I14
sg10
I0
sg11
I0
sa(dp965
g3
I0
sg4
I182
sg5
I3
sg6
I16
sg7
I46
sg8
I22226
sg9
I15
sg10
I4
sg11
I0
sa(dp966
g3
I0
sg4
I60
sg5
I2
sg6
I10
sg7
I13
sg8
I22432
sg9
I14
sg10
I0
sg11
I0
sa(dp967
g3
I0
sg4
I14
sg5
I1
sg6
I8
sg7
I6
sg8
I15880
sg9
I11
sg10
I0
sg11
I0
sa(dp968
g3
I0
sg4
I100
sg5
I5
sg6
I42
sg7
I30
sg8
I10513
sg9
I10
sg10
I8
sg11
I0
sa(dp969
g3
I0
sg4
I0
sg5
I2
sg6
I40
sg7
I1
sg8
I3601
sg9
I16
sg10
I3
sg11
I0
sa(dp970
g3
I0
sg4
I22
sg5
I1
sg6
I13
sg7
I10
sg8
I20039
sg9
I3
sg10
I1
sg11
I0
sa(dp971
g3
I2
sg4
I483
sg5
I17
sg6
I115
sg7
I91
sg8
I23325
sg9
I15
sg10
I23
sg11
I0
sa(dp972
g3
I3
sg4
I625
sg5
I16
sg6
I138
sg7
I138
sg8
I8499
sg9
I14
sg10
I0
sg11
I0
sa(dp973
g3
I1
sg4
I239
sg5
I9
sg6
I62
sg7
I82
sg8
I6183
sg9
I14
sg10
I0
sg11
I0
sa(dp974
g3
I0
sg4
I63
sg5
I4
sg6
I10
sg7
I12
sg8
I2533
sg9
I16
sg10
I0
sg11
I0
sa(dp975
g3
I0
sg4
I0
sg5
I0
sg6
I0
sg7
I0
sg8
I17809
sg9
I12
sg10
I0
sg11
I0
sa(dp976
g3
I0
sg4
I60
sg5
I9
sg6
I47
sg7
I20
sg8
I9259
sg9
I10
sg10
I14
sg11
I0
sa(dp977
g3
I1
sg4
I197
sg5
I11
sg6
I212
sg7
I41
sg8
I9094
sg9
I8
sg10
I0
sg11
I3
sa(dp978
g3
I0
sg4
I107
sg5
I2
sg6
I14
sg7
I31
sg8
I17947
sg9
I11
sg10
I0
sg11
I0
sa(dp979
g3
I1
sg4
I588
sg5
I17
sg6
I103
sg7
I143
sg8
I9845
sg9
I17
sg10
I23
sg11
I0
sa(dp980
g3
I0
sg4
I12
sg5
I0
sg6
I0
sg7
I2
sg8
I24275
sg9
I2
sg10
I0
sg11
I0
sa(dp981
g3
I0
sg4
I8
sg5
I6
sg6
I60
sg7
I4
sg8
I284
sg9
I14
sg10
I7
sg11
I1
sa(dp982
g3
I0
sg4
I6
sg5
I0
sg6
I0
sg7
I6
sg8
I24111
sg9
I4
sg10
I0
sg11
I0
sa(dp983
g3
I0
sg4
I22
sg5
I4
sg6
I24
sg7
I9
sg8
I3127
sg9
I11
sg10
I0
sg11
I0
sa(dp984
g3
I0
sg4
I32
sg5
I2
sg6
I11
sg7
I11
sg8
I12922
sg9
I7
sg10
I4
sg11
I0
sa(dp985
g3
I0
sg4
I20
sg5
I2
sg6
I4
sg7
I6
sg8
I18369
sg9
I11
sg10
I0
sg11
I0
sa(dp986
g3
I0
sg4
I27
sg5
I2
sg6
I39
sg7
I11
sg8
I3583
sg9
I8
sg10
I0
sg11
I0
sa(dp987
g3
I1
sg4
I267
sg5
I12
sg6
I107
sg7
I56
sg8
I24423
sg9
I10
sg10
I0
sg11
I1
sa(dp988
g3
I2
sg4
I289
sg5
I2
sg6
I0
sg7
I56
sg8
I21530
sg9
I7
sg10
I4
sg11
I0
sa(dp989
g3
I0
sg4
I0
sg5
I0
sg6
I0
sg7
I0
sg8
I22005
sg9
I6
sg10
I0
sg11
I0
sa(dp990
g3
I0
sg4
I0
sg5
I0
sg6
I0
sg7
I0
sg8
I13744
sg9
I1
sg10
I0
sg11
I0
sa(dp991
g3
I0
sg4
I0
sg5
I0
sg6
I0
sg7
I0
sg8
I20599
sg9
I1
sg10
I0
sg11
I0
sa(dp992
g3
I0
sg4
I50
sg5
I3
sg6
I10
sg7
I8
sg8
I21034
sg9
I15
sg10
I4
sg11
I0
sa(dp993
g3
I0
sg4
I28
sg5
I20
sg6
I282
sg7
I6
sg8
I15003
sg9
I9
sg10
I29
sg11
I0
sa(dp994
g3
I1
sg4
I64
sg5
I1
sg6
I4
sg7
I22
sg8
I4316
sg9
I15
sg10
I0
sg11
I0
sa(dp995
g3
I0
sg4
I99
sg5
I13
sg6
I168
sg7
I26
sg8
I11346
sg9
I12
sg10
I20
sg11
I0
sa(dp996
g3
I5
sg4
I416
sg5
I1
sg6
I7
sg7
I93
sg8
I8312
sg9
I9
sg10
I3
sg11
I0
sa(dp997
g3
I0
sg4
I8
sg5
I1
sg6
I12
sg7
I4
sg8
I8229
sg9
I1
sg10
I3
sg11
I0
sa(dp998
g3
I0
sg4
I7
sg5
I0
sg6
I0
sg7
I3
sg8
I8835
sg9
I2
sg10
I0
sg11
I0
sa(dp999
g3
I2
sg4
I116
sg5
I7
sg6
I92
sg7
I28
sg8
I3351
sg9
I11
sg10
I0
sg11
I0
sa(dp1000
g3
I0
sg4
I15
sg5
I4
sg6
I20
sg7
I1
sg8
I7499
sg9
I13
sg10
I0
sg11
I0
sa(dp1001
g3
I0
sg4
I0
sg5
I0
sg6
I0
sg7
I0
sg8
I19529
sg9
I1
sg10
I0
sg11
I0
sa(dp1002
g3
I0
sg4
I116
sg5
I6
sg6
I72
sg7
I25
sg8
I10177
sg9
I14
sg10
I0
sg11
I0
sa(dp1003
g3
I0
sg4
I88
sg5
I1
sg6
I-2
sg7
I28
sg8
I23786
sg9
I7
sg10
I0
sg11
I0
sa(dp1004
g3
I1
sg4
I62
sg5
I2
sg6
I18
sg7
I16
sg8
I7657
sg9
I13
sg10
I0
sg11
I0
sa(dp1005
g3
I0
sg4
I1
sg5
I2
sg6
I8
sg7
I2
sg8
I2763
sg9
I2
sg10
I0
sg11
I0
sa(dp1006
g3
I3
sg4
I1023
sg5
I39
sg6
I309
sg7
I239
sg8
I523
sg9
I15
sg10
I0
sg11
I2
sa(dp1007
g3
I0
sg4
I173
sg5
I5
sg6
I39
sg7
I46
sg8
I11608
sg9
I19
sg10
I0
sg11
I0
sa(dp1008
g3
I0
sg4
I183
sg5
I8
sg6
I46
sg7
I49
sg8
I11237
sg9
I8
sg10
I12
sg11
I0
sa(dp1009
g3
I0
sg4
I0
sg5
I0
sg6
I0
sg7
I0
sg8
I10076
sg9
I1
sg10
I0
sg11
I0
sa(dp1010
g3
I1
sg4
I366
sg5
I27
sg6
I267
sg7
I80
sg8
I19000
sg9
I16
sg10
I0
sg11
I2
sa(dp1011
g3
I1
sg4
I193
sg5
I4
sg6
I9
sg7
I52
sg8
I4259
sg9
I13
sg10
I0
sg11
I0
sa(dp1012
g3
I5
sg4
I566
sg5
I15
sg6
I46
sg7
I150
sg8
I18152
sg9
I15
sg10
I19
sg11
I1
sa(dp1013
g3
I0
sg4
I55
sg5
I4
sg6
I63
sg7
I18
sg8
I24201
sg9
I5
sg10
I0
sg11
I0
sa(dp1014
g3
I4
sg4
I959
sg5
I18
sg6
I81
sg7
I266
sg8
I19284
sg9
I16
sg10
I0
sg11
I0
sa(dp1015
g3
I0
sg4
I321
sg5
I5
sg6
I67
sg7
I74
sg8
I19774
sg9
I14
sg10
I8
sg11
I0
sa(dp1016
g3
I4
sg4
I632
sg5
I8
sg6
I28
sg7
I193
sg8
I17547
sg9
I15
sg10
I12
sg11
I1
sa(dp1017
g3
I1
sg4
I49
sg5
I1
sg6
I8
sg7
I7
sg8
I61
sg9
I3
sg10
I0
sg11
I0
sa(dp1018
g3
I0
sg4
I0
sg5
I0
sg6
I0
sg7
I0
sg8
I20731
sg9
I2
sg10
I0
sg11
I0
sa(dp1019
g3
I2
sg4
I310
sg5
I26
sg6
I218
sg7
I70
sg8
I17917
sg9
I17
sg10
I0
sg11
I1
sa(dp1020
g3
I2
sg4
I42
sg5
I7
sg6
I29
sg7
I16
sg8
I8491
sg9
I11
sg10
I11
sg11
I0
sa(dp1021
g3
I0
sg4
I85
sg5
I3
sg6
I19
sg7
I18
sg8
I10462
sg9
I15
sg10
I3
sg11
I0
sa(dp1022
g3
I2
sg4
I414
sg5
I6
sg6
I32
sg7
I131
sg8
I4295
sg9
I8
sg10
I8
sg11
I0
sa(dp1023
g3
I2
sg4
I168
sg5
I14
sg6
I128
sg7
I44
sg8
I15687
sg9
I16
sg10
I0
sg11
I0
sa(dp1024
g3
I0
sg4
I30
sg5
I6
sg6
I54
sg7
I13
sg8
I15980
sg9
I6
sg10
I0
sg11
I0
sa(dp1025
g3
I1
sg4
I44
sg5
I2
sg6
I9
sg7
I8
sg8
I4419
sg9
I17
sg10
I4
sg11
I0
sa(dp1026
g3
I0
sg4
I0
sg5
I0
sg6
I0
sg7
I0
sg8
I11450
sg9
I6
sg10
I0
sg11
I0
sa(dp1027
g3
I4
sg4
I445
sg5
I9
sg6
I112
sg7
I87
sg8
I1480
sg9
I15
sg10
I12
sg11
I0
sa(dp1028
g3
I5
sg4
I490
sg5
I13
sg6
I137
sg7
I110
sg8
I9653
sg9
I15
sg10
I15
sg11
I0
sa(dp1029
g3
I1
sg4
I24
sg5
I2
sg6
I29
sg7
I10
sg8
I15711
sg9
I14
sg10
I0
sg11
I0
sa(dp1030
g3
I0
sg4
I79
sg5
I21
sg6
I155
sg7
I28
sg8
I23860
sg9
I14
sg10
I36
sg11
I2
sa(dp1031
g3
I1
sg4
I110
sg5
I6
sg6
I65
sg7
I23
sg8
I15844
sg9
I14
sg10
I0
sg11
I0
sa(dp1032
g3
I5
sg4
I935
sg5
I49
sg6
I440
sg7
I219
sg8
I7143
sg9
I15
sg10
I0
sg11
I2
sa(dp1033
g3
I0
sg4
I3
sg5
I1
sg6
I-7
sg7
I1
sg8
I238
sg9
I9
sg10
I0
sg11
I0
sa(dp1034
g3
I0
sg4
I18
sg5
I9
sg6
I55
sg7
I8
sg8
I14518
sg9
I16
sg10
I13
sg11
I1
sa(dp1035
g3
I1
sg4
I193
sg5
I7
sg6
I48
sg7
I45
sg8
I14371
sg9
I16
sg10
I0
sg11
I0
sa(dp1036
g3
I1
sg4
I129
sg5
I4
sg6
I6
sg7
I36
sg8
I16854
sg9
I11
sg10
I0
sg11
I1
sa(dp1037
g3
I0
sg4
I1
sg5
I2
sg6
I7
sg7
I1
sg8
I3160
sg9
I1
sg10
I0
sg11
I0
sa(dp1038
g3
I0
sg4
I0
sg5
I0
sg6
I0
sg7
I0
sg8
I19811
sg9
I1
sg10
I0
sg11
I0
sa(dp1039
g3
I0
sg4
I51
sg5
I2
sg6
I15
sg7
I15
sg8
I5916
sg9
I14
sg10
I4
sg11
I0
sa(dp1040
g3
I0
sg4
I9
sg5
I0
sg6
I0
sg7
I1
sg8
I2817
sg9
I8
sg10
I0
sg11
I0
sa(dp1041
g3
I0
sg4
I0
sg5
I0
sg6
I0
sg7
I0
sg8
I14697
sg9
I6
sg10
I0
sg11
I0
sa(dp1042
g3
I1
sg4
I16
sg5
I0
sg6
I0
sg7
I10
sg8
I10503
sg9
I8
sg10
I0
sg11
I0
sa(dp1043
g3
I0
sg4
I34
sg5
I5
sg6
I20
sg7
I8
sg8
I2585
sg9
I7
sg10
I0
sg11
I1
sa(dp1044
g3
I1
sg4
I45
sg5
I12
sg6
I117
sg7
I13
sg8
I21729
sg9
I3
sg10
I0
sg11
I0
sa(dp1045
g3
I10
sg4
I374
sg5
I12
sg6
I109
sg7
I81
sg8
I12186
sg9
I14
sg10
I0
sg11
I0
sa(dp1046
g3
I1
sg4
I49
sg5
I1
sg6
I12
sg7
I16
sg8
I58
sg9
I1
sg10
I0
sg11
I0
sa(dp1047
g3
I0
sg4
I0
sg5
I0
sg6
I0
sg7
I0
sg8
I8524
sg9
I1
sg10
I0
sg11
I0
sa(dp1048
g3
I0
sg4
I0
sg5
I0
sg6
I0
sg7
I0
sg8
I23127
sg9
I1
sg10
I0
sg11
I0
sa(dp1049
g3
I2
sg4
I119
sg5
I6
sg6
I53
sg7
I32
sg8
I9652
sg9
I8
sg10
I7
sg11
I0
sa(dp1050
g3
I0
sg4
I2
sg5
I0
sg6
I0
sg7
I1
sg8
I10811
sg9
I1
sg10
I0
sg11
I0
sa(dp1051
g3
I0
sg4
I54
sg5
I3
sg6
I16
sg7
I10
sg8
I17275
sg9
I15
sg10
I4
sg11
I0
sa(dp1052
g3
I4
sg4
I358
sg5
I4
sg6
I34
sg7
I71
sg8
I24360
sg9
I16
sg10
I9
sg11
I1
sa(dp1053
g3
I1
sg4
I13
sg5
I0
sg6
I0
sg7
I6
sg8
I10570
sg9
I16
sg10
I0
sg11
I0
sa(dp1054
g3
I0
sg4
I205
sg5
I11
sg6
I73
sg7
I33
sg8
I24877
sg9
I14
sg10
I0
sg11
I0
sa(dp1055
g3
I0
sg4
I12
sg5
I0
sg6
I0
sg7
I3
sg8
I4171
sg9
I5
sg10
I0
sg11
I0
sa(dp1056
g3
I0
sg4
I42
sg5
I3
sg6
I-5
sg7
I14
sg8
I15044
sg9
I2
sg10
I0
sg11
I0
sa(dp1057
g3
I0
sg4
I11
sg5
I2
sg6
I28
sg7
I6
sg8
I6979
sg9
I3
sg10
I0
sg11
I0
sa(dp1058
g3
I0
sg4
I11
sg5
I0
sg6
I0
sg7
I2
sg8
I9825
sg9
I3
sg10
I0
sg11
I0
sa(dp1059
g3
I0
sg4
I0
sg5
I0
sg6
I0
sg7
I0
sg8
I9771
sg9
I3
sg10
I0
sg11
I0
sa(dp1060
g3
I2
sg4
I659
sg5
I31
sg6
I272
sg7
I149
sg8
I16024
sg9
I12
sg10
I0
sg11
I0
sa(dp1061
g3
I6
sg4
I537
sg5
I22
sg6
I279
sg7
I148
sg8
I12860
sg9
I16
sg10
I42
sg11
I1
sa(dp1062
g3
I0
sg4
I0
sg5
I0
sg6
I0
sg7
I0
sg8
I9323
sg9
I2
sg10
I0
sg11
I0
sa(dp1063
g3
I0
sg4
I139
sg5
I3
sg6
I15
sg7
I38
sg8
I17655
sg9
I11
sg10
I9
sg11
I0
sa(dp1064
g3
I0
sg4
I122
sg5
I1
sg6
I2
sg7
I30
sg8
I17428
sg9
I6
sg10
I6
sg11
I0
sa(dp1065
g3
I0
sg4
I0
sg5
I0
sg6
I0
sg7
I0
sg8
I18518
sg9
I4
sg10
I0
sg11
I0
sa(dp1066
g3
I0
sg4
I0
sg5
I0
sg6
I0
sg7
I0
sg8
I22346
sg9
I3
sg10
I0
sg11
I0
sa(dp1067
g3
I0
sg4
I21
sg5
I1
sg6
I14
sg7
I6
sg8
I11644
sg9
I11
sg10
I0
sg11
I0
sa(dp1068
g3
I0
sg4
I18
sg5
I0
sg6
I0
sg7
I3
sg8
I8567
sg9
I6
sg10
I0
sg11
I0
sa(dp1069
g3
I3
sg4
I297
sg5
I11
sg6
I82
sg7
I84
sg8
I9522
sg9
I16
sg10
I17
sg11
I0
sa(dp1070
g3
I0
sg4
I29
sg5
I0
sg6
I0
sg7
I14
sg8
I8231
sg9
I2
sg10
I0
sg11
I0
sa(dp1071
g3
I0
sg4
I0
sg5
I1
sg6
I15
sg7
I0
sg8
I6360
sg9
I16
sg10
I0
sg11
I0
sa(dp1072
g3
I0
sg4
I8
sg5
I1
sg6
I14
sg7
I2
sg8
I10540
sg9
I1
sg10
I1
sg11
I0
sa(dp1073
g3
I4
sg4
I484
sg5
I26
sg6
I258
sg7
I150
sg8
I15528
sg9
I11
sg10
I29
sg11
I0
sa(dp1074
g3
I0
sg4
I77
sg5
I3
sg6
I11
sg7
I28
sg8
I14894
sg9
I14
sg10
I0
sg11
I0
sa(dp1075
g3
I6
sg4
I1227
sg5
I23
sg6
I91
sg7
I308
sg8
I24008
sg9
I15
sg10
I28
sg11
I0
sa(dp1076
g3
I2
sg4
I230
sg5
I14
sg6
I149
sg7
I63
sg8
I13799
sg9
I9
sg10
I22
sg11
I1
sa(dp1077
g3
I1
sg4
I12
sg5
I5
sg6
I26
sg7
I3
sg8
I24446
sg9
I15
sg10
I10
sg11
I0
sa(dp1078
g3
I0
sg4
I220
sg5
I1
sg6
I4
sg7
I40
sg8
I1459
sg9
I7
sg10
I3
sg11
I0
sa(dp1079
g3
I0
sg4
I9
sg5
I2
sg6
I35
sg7
I2
sg8
I22179
sg9
I4
sg10
I0
sg11
I1
sa(dp1080
g3
I0
sg4
I33
sg5
I4
sg6
I37
sg7
I10
sg8
I5990
sg9
I2
sg10
I0
sg11
I0
sa(dp1081
g3
I0
sg4
I78
sg5
I5
sg6
I31
sg7
I31
sg8
I18286
sg9
I6
sg10
I8
sg11
I0
sa(dp1082
g3
I0
sg4
I44
sg5
I2
sg6
I18
sg7
I7
sg8
I8302
sg9
I10
sg10
I3
sg11
I0
sa(dp1083
g3
I0
sg4
I9
sg5
I0
sg6
I0
sg7
I3
sg8
I12296
sg9
I12
sg10
I0
sg11
I0
sa(dp1084
g3
I0
sg4
I58
sg5
I0
sg6
I0
sg7
I13
sg8
I21865
sg9
I14
sg10
I0
sg11
I0
sa(dp1085
g3
I0
sg4
I79
sg5
I0
sg6
I0
sg7
I18
sg8
I15195
sg9
I4
sg10
I0
sg11
I0
sa(dp1086
g3
I0
sg4
I131
sg5
I9
sg6
I84
sg7
I27
sg8
I2536
sg9
I15
sg10
I15
sg11
I1
sa(dp1087
g3
I0
sg4
I79
sg5
I11
sg6
I88
sg7
I24
sg8
I1502
sg9
I16
sg10
I0
sg11
I0
sa(dp1088
g3
I0
sg4
I153
sg5
I3
sg6
I25
sg7
I32
sg8
I15842
sg9
I11
sg10
I3
sg11
I0
sa(dp1089
g3
I7
sg4
I1162
sg5
I26
sg6
I349
sg7
I227
sg8
I24632
sg9
I12
sg10
I0
sg11
I3
sa(dp1090
g3
I1
sg4
I250
sg5
I6
sg6
I45
sg7
I51
sg8
I15340
sg9
I13
sg10
I8
sg11
I0
sa(dp1091
g3
I9
sg4
I1165
sg5
I51
sg6
I493
sg7
I235
sg8
I23431
sg9
I16
sg10
I63
sg11
I2
sa(dp1092
g3
I3
sg4
I327
sg5
I14
sg6
I195
sg7
I94
sg8
I2605
sg9
I14
sg10
I18
sg11
I0
sa(dp1093
g3
I0
sg4
I0
sg5
I0
sg6
I0
sg7
I0
sg8
I20654
sg9
I1
sg10
I0
sg11
I0
sa(dp1094
g3
I0
sg4
I3
sg5
I0
sg6
I0
sg7
I2
sg8
I21461
sg9
I3
sg10
I0
sg11
I0
sa(dp1095
g3
I0
sg4
I0
sg5
I0
sg6
I0
sg7
I1
sg8
I17776
sg9
I1
sg10
I0
sg11
I0
sa(dp1096
g3
I1
sg4
I205
sg5
I25
sg6
I206
sg7
I57
sg8
I18955
sg9
I17
sg10
I33
sg11
I1
sa(dp1097
g3
I7
sg4
I512
sg5
I37
sg6
I191
sg7
I173
sg8
I17906
sg9
I16
sg10
I43
sg11
I1
sa(dp1098
g3
I0
sg4
I48
sg5
I0
sg6
I0
sg7
I8
sg8
I18712
sg9
I7
sg10
I0
sg11
I0
sa(dp1099
g3
I0
sg4
I565
sg5
I20
sg6
I156
sg7
I182
sg8
I10918
sg9
I14
sg10
I0
sg11
I1
sa(dp1100
g3
I3
sg4
I608
sg5
I15
sg6
I131
sg7
I127
sg8
I8152
sg9
I14
sg10
I22
sg11
I0
sa(dp1101
g3
I1
sg4
I179
sg5
I5
sg6
I27
sg7
I43
sg8
I18711
sg9
I15
sg10
I0
sg11
I1
sa(dp1102
g3
I0
sg4
I7
sg5
I0
sg6
I0
sg7
I6
sg8
I13091
sg9
I4
sg10
I0
sg11
I0
sa(dp1103
g3
I3
sg4
I1063
sg5
I21
sg6
I186
sg7
I223
sg8
I2508
sg9
I16
sg10
I35
sg11
I0
sa(dp1104
g3
I0
sg4
I19
sg5
I2
sg6
I52
sg7
I5
sg8
I22084
sg9
I1
sg10
I0
sg11
I1
sa(dp1105
g3
I1
sg4
I118
sg5
I0
sg6
I0
sg7
I17
sg8
I20207
sg9
I4
sg10
I0
sg11
I0
sa(dp1106
g3
I0
sg4
I33
sg5
I4
sg6
I42
sg7
I12
sg8
I11761
sg9
I12
sg10
I5
sg11
I0
sa(dp1107
g3
I1
sg4
I45
sg5
I3
sg6
I30
sg7
I15
sg8
I20321
sg9
I12
sg10
I4
sg11
I0
sa(dp1108
g3
I0
sg4
I111
sg5
I9
sg6
I47
sg7
I37
sg8
I24584
sg9
I14
sg10
I0
sg11
I0
sa(dp1109
g3
I3
sg4
I962
sg5
I18
sg6
I208
sg7
I218
sg8
I22128
sg9
I17
sg10
I0
sg11
I0
sa(dp1110
g3
I2
sg4
I91
sg5
I1
sg6
I3
sg7
I17
sg8
I5458
sg9
I14
sg10
I0
sg11
I0
sa(dp1111
g3
I1
sg4
I68
sg5
I3
sg6
I25
sg7
I27
sg8
I10804
sg9
I13
sg10
I0
sg11
I0
sa(dp1112
g3
I0
sg4
I58
sg5
I7
sg6
I38
sg7
I35
sg8
I5268
sg9
I6
sg10
I13
sg11
I0
sa(dp1113
g3
I0
sg4
I272
sg5
I1
sg6
I3
sg7
I67
sg8
I1557
sg9
I9
sg10
I1
sg11
I0
sa(dp1114
g3
I0
sg4
I164
sg5
I9
sg6
I100
sg7
I49
sg8
I16264
sg9
I9
sg10
I0
sg11
I0
sa(dp1115
g3
I1
sg4
I151
sg5
I2
sg6
I5
sg7
I50
sg8
I23746
sg9
I13
sg10
I0
sg11
I1
sa(dp1116
g3
I4
sg4
I368
sg5
I9
sg6
I140
sg7
I83
sg8
I416
sg9
I14
sg10
I0
sg11
I0
sa(dp1117
g3
I0
sg4
I0
sg5
I0
sg6
I0
sg7
I0
sg8
I16018
sg9
I2
sg10
I0
sg11
I0
sa(dp1118
g3
I1
sg4
I95
sg5
I15
sg6
I110
sg7
I19
sg8
I9733
sg9
I18
sg10
I19
sg11
I1
sa(dp1119
g3
I0
sg4
I26
sg5
I1
sg6
I17
sg7
I10
sg8
I23542
sg9
I2
sg10
I0
sg11
I0
sa(dp1120
g3
I0
sg4
I51
sg5
I7
sg6
I49
sg7
I14
sg8
I8343
sg9
I7
sg10
I0
sg11
I0
sa(dp1121
g3
I0
sg4
I328
sg5
I18
sg6
I279
sg7
I71
sg8
I3976
sg9
I16
sg10
I0
sg11
I1
sa(dp1122
g3
I1
sg4
I144
sg5
I3
sg6
I-4
sg7
I23
sg8
I13154
sg9
I15
sg10
I0
sg11
I0
sa(dp1123
g3
I0
sg4
I8
sg5
I1
sg6
I26
sg7
I2
sg8
I24560
sg9
I3
sg10
I0
sg11
I0
sa(dp1124
g3
I0
sg4
I0
sg5
I0
sg6
I0
sg7
I0
sg8
I18818
sg9
I6
sg10
I0
sg11
I0
sa(dp1125
g3
I0
sg4
I26
sg5
I2
sg6
I10
sg7
I2
sg8
I20488
sg9
I4
sg10
I2
sg11
I0
sa(dp1126
g3
I0
sg4
I0
sg5
I0
sg6
I0
sg7
I0
sg8
I23800
sg9
I5
sg10
I0
sg11
I0
sa(dp1127
g3
I0
sg4
I7
sg5
I2
sg6
I18
sg7
I5
sg8
I6614
sg9
I16
sg10
I0
sg11
I0
sa(dp1128
g3
I0
sg4
I28
sg5
I0
sg6
I0
sg7
I6
sg8
I8865
sg9
I3
sg10
I0
sg11
I0
sa(dp1129
g3
I1
sg4
I48
sg5
I8
sg6
I34
sg7
I15
sg8
I15836
sg9
I5
sg10
I0
sg11
I0
sa(dp1130
g3
I0
sg4
I8
sg5
I0
sg6
I0
sg7
I3
sg8
I11013
sg9
I3
sg10
I0
sg11
I0
sa(dp1131
g3
I1
sg4
I501
sg5
I33
sg6
I313
sg7
I121
sg8
I24043
sg9
I13
sg10
I36
sg11
I1
sa(dp1132
g3
I6
sg4
I112
sg5
I9
sg6
I63
sg7
I46
sg8
I10906
sg9
I10
sg10
I11
sg11
I0
sa(dp1133
g3
I0
sg4
I0
sg5
I0
sg6
I0
sg7
I0
sg8
I21753
sg9
I2
sg10
I0
sg11
I0
sa(dp1134
g3
I0
sg4
I164
sg5
I7
sg6
I44
sg7
I58
sg8
I24235
sg9
I5
sg10
I10
sg11
I0
sa(dp1135
g3
I0
sg4
I0
sg5
I0
sg6
I0
sg7
I0
sg8
I8358
sg9
I10
sg10
I0
sg11
I0
sa(dp1136
g3
I0
sg4
I74
sg5
I0
sg6
I0
sg7
I23
sg8
I12844
sg9
I6
sg10
I0
sg11
I0
sa(dp1137
g3
I0
sg4
I75
sg5
I6
sg6
I33
sg7
I21
sg8
I6062
sg9
I12
sg10
I12
sg11
I0
sa(dp1138
g3
I2
sg4
I266
sg5
I17
sg6
I206
sg7
I66
sg8
I861
sg9
I14
sg10
I0
sg11
I1
sa(dp1139
g3
I0
sg4
I210
sg5
I7
sg6
I28
sg7
I56
sg8
I10514
sg9
I6
sg10
I0
sg11
I2
sa(dp1140
g3
I0
sg4
I19
sg5
I4
sg6
I25
sg7
I8
sg8
I4747
sg9
I16
sg10
I0
sg11
I0
sa(dp1141
g3
I2
sg4
I478
sg5
I17
sg6
I199
sg7
I123
sg8
I7182
sg9
I15
sg10
I0
sg11
I0
sa(dp1142
g3
I0
sg4
I0
sg5
I0
sg6
I0
sg7
I0
sg8
I4134
sg9
I1
sg10
I0
sg11
I0
sa(dp1143
g3
I0
sg4
I0
sg5
I0
sg6
I0
sg7
I0
sg8
I22569
sg9
I2
sg10
I0
sg11
I0
sa(dp1144
g3
I2
sg4
I517
sg5
I15
sg6
I94
sg7
I124
sg8
I5345
sg9
I14
sg10
I0
sg11
I0
sa(dp1145
g3
I0
sg4
I0
sg5
I0
sg6
I0
sg7
I0
sg8
I10699
sg9
I2
sg10
I0
sg11
I0
sa(dp1146
g3
I1
sg4
I187
sg5
I7
sg6
I90
sg7
I49
sg8
I160
sg9
I9
sg10
I11
sg11
I0
sa(dp1147
g3
I0
sg4
I39
sg5
I5
sg6
I33
sg7
I8
sg8
I16370
sg9
I14
sg10
I0
sg11
I0
sa(dp1148
g3
I0
sg4
I5
sg5
I1
sg6
I2
sg7
I2
sg8
I13860
sg9
I3
sg10
I1
sg11
I0
sa(dp1149
g3
I0
sg4
I0
sg5
I0
sg6
I0
sg7
I0
sg8
I11752
sg9
I1
sg10
I0
sg11
I0
sa(dp1150
g3
I0
sg4
I63
sg5
I1
sg6
I5
sg7
I13
sg8
I8397
sg9
I17
sg10
I1
sg11
I0
sa(dp1151
g3
I6
sg4
I383
sg5
I17
sg6
I203
sg7
I127
sg8
I8487
sg9
I13
sg10
I0
sg11
I0
sa(dp1152
g3
I0
sg4
I99
sg5
I5
sg6
I40
sg7
I39
sg8
I17637
sg9
I3
sg10
I7
sg11
I0
sa(dp1153
g3
I0
sg4
I0
sg5
I0
sg6
I0
sg7
I0
sg8
I12371
sg9
I10
sg10
I0
sg11
I0
sa(dp1154
g3
I1
sg4
I110
sg5
I5
sg6
I60
sg7
I30
sg8
I10278
sg9
I7
sg10
I0
sg11
I0
sa(dp1155
g3
I0
sg4
I189
sg5
I9
sg6
I61
sg7
I58
sg8
I15846
sg9
I10
sg10
I0
sg11
I0
sa(dp1156
g3
I1
sg4
I241
sg5
I4
sg6
I46
sg7
I77
sg8
I3615
sg9
I10
sg10
I0
sg11
I1
sa(dp1157
g3
I0
sg4
I208
sg5
I7
sg6
I59
sg7
I49
sg8
I3536
sg9
I4
sg10
I8
sg11
I1
sa(dp1158
g3
I5
sg4
I852
sg5
I5
sg6
I23
sg7
I255
sg8
I5377
sg9
I19
sg10
I6
sg11
I0
sa(dp1159
g3
I1
sg4
I88
sg5
I0
sg6
I0
sg7
I22
sg8
I3399
sg9
I5
sg10
I0
sg11
I0
sa(dp1160
g3
I1
sg4
I61
sg5
I3
sg6
I3
sg7
I13
sg8
I22435
sg9
I14
sg10
I0
sg11
I0
sa(dp1161
g3
I0
sg4
I0
sg5
I0
sg6
I0
sg7
I0
sg8
I8230
sg9
I1
sg10
I0
sg11
I0
sa(dp1162
g3
I1
sg4
I341
sg5
I11
sg6
I44
sg7
I80
sg8
I16800
sg9
I14
sg10
I0
sg11
I0
sa(dp1163
g3
I0
sg4
I-4
sg5
I8
sg6
I147
sg7
I2
sg8
I11158
sg9
I14
sg10
I0
sg11
I0
sa(dp1164
g3
I0
sg4
I3
sg5
I3
sg6
I14
sg7
I3
sg8
I9464
sg9
I10
sg10
I3
sg11
I0
sa(dp1165
g3
I1
sg4
I42
sg5
I0
sg6
I0
sg7
I11
sg8
I4035
sg9
I3
sg10
I0
sg11
I0
sa(dp1166
g3
I9
sg4
I676
sg5
I51
sg6
I568
sg7
I155
sg8
I11230
sg9
I18
sg10
I75
sg11
I4
sa(dp1167
g3
I0
sg4
I31
sg5
I0
sg6
I0
sg7
I5
sg8
I2841
sg9
I3
sg10
I0
sg11
I0
sa(dp1168
g3
I0
sg4
I1
sg5
I0
sg6
I0
sg7
I1
sg8
I3048
sg9
I1
sg10
I0
sg11
I0
sa(dp1169
g3
I0
sg4
I38
sg5
I4
sg6
I31
sg7
I7
sg8
I10594
sg9
I14
sg10
I0
sg11
I0
sa(dp1170
g3
I0
sg4
I4
sg5
I0
sg6
I0
sg7
I1
sg8
I9857
sg9
I1
sg10
I0
sg11
I0
sa(dp1171
g3
I0
sg4
I12
sg5
I1
sg6
I16
sg7
I1
sg8
I20213
sg9
I5
sg10
I0
sg11
I0
sa(dp1172
g3
I0
sg4
I122
sg5
I21
sg6
I187
sg7
I36
sg8
I24031
sg9
I16
sg10
I27
sg11
I1
sa(dp1173
g3
I2
sg4
I171
sg5
I8
sg6
I57
sg7
I43
sg8
I890
sg9
I3
sg10
I9
sg11
I0
sa(dp1174
g3
I2
sg4
I773
sg5
I17
sg6
I102
sg7
I201
sg8
I403
sg9
I16
sg10
I0
sg11
I1
sa(dp1175
g3
I6
sg4
I704
sg5
I12
sg6
I82
sg7
I168
sg8
I12046
sg9
I14
sg10
I18
sg11
I1
sa(dp1176
g3
I0
sg4
I77
sg5
I3
sg6
I10
sg7
I19
sg8
I7522
sg9
I9
sg10
I0
sg11
I0
sa(dp1177
g3
I2
sg4
I225
sg5
I35
sg6
I248
sg7
I77
sg8
I17630
sg9
I16
sg10
I0
sg11
I1
sa(dp1178
g3
I0
sg4
I41
sg5
I1
sg6
I12
sg7
I16
sg8
I9256
sg9
I8
sg10
I0
sg11
I0
sa(dp1179
g3
I0
sg4
I0
sg5
I0
sg6
I0
sg7
I0
sg8
I21127
sg9
I2
sg10
I0
sg11
I0
sa(dp1180
g3
I0
sg4
I0
sg5
I1
sg6
I-1
sg7
I0
sg8
I22833
sg9
I1
sg10
I0
sg11
I0
sa(dp1181
g3
I0
sg4
I12
sg5
I0
sg6
I0
sg7
I3
sg8
I17571
sg9
I2
sg10
I0
sg11
I0
sa(dp1182
g3
I0
sg4
I124
sg5
I38
sg6
I583
sg7
I29
sg8
I15073
sg9
I17
sg10
I0
sg11
I4
sa(dp1183
g3
I0
sg4
I42
sg5
I1
sg6
I1
sg7
I17
sg8
I17001
sg9
I12
sg10
I0
sg11
I0
sa(dp1184
g3
I0
sg4
I0
sg5
I0
sg6
I0
sg7
I0
sg8
I17045
sg9
I1
sg10
I0
sg11
I0
sa(dp1185
g3
I0
sg4
I0
sg5
I0
sg6
I0
sg7
I0
sg8
I6968
sg9
I2
sg10
I0
sg11
I0
sa(dp1186
g3
I0
sg4
I10
sg5
I0
sg6
I0
sg7
I3
sg8
I10702
sg9
I5
sg10
I0
sg11
I0
sa(dp1187
g8
I8115
sa(dp1188
g3
I0
sg4
I7
sg5
I2
sg6
I7
sg7
I6
sg8
I1081
sg9
I9
sg10
I3
sg11
I0
sa(dp1189
g3
I0
sg4
I5
sg5
I2
sg6
I22
sg7
I3
sg8
I22561
sg9
I9
sg10
I0
sg11
I0
sa(dp1190
g3
I1
sg4
I82
sg5
I4
sg6
I89
sg7
I22
sg8
I8406
sg9
I16
sg10
I0
sg11
I0
sa(dp1191
g3
I0
sg4
I4
sg5
I0
sg6
I0
sg7
I2
sg8
I18580
sg9
I2
sg10
I0
sg11
I0
sa(dp1192
g3
I0
sg4
I4
sg5
I1
sg6
I2
sg7
I1
sg8
I24473
sg9
I2
sg10
I1
sg11
I0
sa(dp1193
g3
I1
sg4
I57
sg5
I0
sg6
I0
sg7
I15
sg8
I22910
sg9
I5
sg10
I0
sg11
I0
sa(dp1194
g3
I0
sg4
I118
sg5
I18
sg6
I157
sg7
I30
sg8
I20649
sg9
I13
sg10
I0
sg11
I2
sa(dp1195
g3
I1
sg4
I406
sg5
I20
sg6
I126
sg7
I125
sg8
I18317
sg9
I12
sg10
I29
sg11
I2
sa(dp1196
g3
I7
sg4
I1060
sg5
I22
sg6
I246
sg7
I238
sg8
I15367
sg9
I16
sg10
I0
sg11
I0
sa(dp1197
g3
I0
sg4
I0
sg5
I0
sg6
I0
sg7
I0
sg8
I5180
sg9
I3
sg10
I0
sg11
I0
sa(dp1198
g3
I0
sg4
I11
sg5
I0
sg6
I0
sg7
I3
sg8
I24280
sg9
I16
sg10
I0
sg11
I0
sa(dp1199
g3
I1
sg4
I264
sg5
I13
sg6
I81
sg7
I58
sg8
I23082
sg9
I5
sg10
I15
sg11
I0
sa(dp1200
g3
I1
sg4
I235
sg5
I8
sg6
I39
sg7
I57
sg8
I21095
sg9
I13
sg10
I0
sg11
I0
sa(dp1201
g3
I0
sg4
I93
sg5
I2
sg6
I6
sg7
I22
sg8
I11523
sg9
I7
sg10
I3
sg11
I0
sa(dp1202
g3
I0
sg4
I0
sg5
I0
sg6
I0
sg7
I0
sg8
I8970
sg9
I1
sg10
I0
sg11
I0
sa(dp1203
g3
I1
sg4
I413
sg5
I13
sg6
I82
sg7
I107
sg8
I9912
sg9
I15
sg10
I16
sg11
I0
sa(dp1204
g3
I1
sg4
I163
sg5
I5
sg6
I68
sg7
I29
sg8
I7027
sg9
I17
sg10
I7
sg11
I0
sa(dp1205
g3
I0
sg4
I192
sg5
I13
sg6
I70
sg7
I60
sg8
I6717
sg9
I13
sg10
I16
sg11
I0
sa(dp1206
g3
I0
sg4
I195
sg5
I16
sg6
I135
sg7
I63
sg8
I3760
sg9
I16
sg10
I19
sg11
I1
sa(dp1207
g3
I0
sg4
I22
sg5
I0
sg6
I0
sg7
I5
sg8
I1404
sg9
I1
sg10
I0
sg11
I0
sa(dp1208
g3
I1
sg4
I238
sg5
I3
sg6
I28
sg7
I59
sg8
I24244
sg9
I13
sg10
I3
sg11
I0
sa(dp1209
g3
I0
sg4
I0
sg5
I1
sg6
I9
sg7
I0
sg8
I3831
sg9
I2
sg10
I0
sg11
I0
sa(dp1210
g3
I1
sg4
I19
sg5
I1
sg6
I-3
sg7
I4
sg8
I702
sg9
I5
sg10
I0
sg11
I0
sa(dp1211
g3
I1
sg4
I41
sg5
I3
sg6
I23
sg7
I11
sg8
I6812
sg9
I5
sg10
I0
sg11
I0
sa(dp1212
g3
I0
sg4
I0
sg5
I0
sg6
I0
sg7
I0
sg8
I3497
sg9
I5
sg10
I0
sg11
I0
sa(dp1213
g3
I0
sg4
I24
sg5
I2
sg6
I3
sg7
I5
sg8
I23069
sg9
I2
sg10
I0
sg11
I0
sa(dp1214
g3
I0
sg4
I0
sg5
I0
sg6
I0
sg7
I0
sg8
I15211
sg9
I3
sg10
I0
sg11
I0
sa(dp1215
g3
I0
sg4
I0
sg5
I9
sg6
I57
sg7
I0
sg8
I15448
sg9
I10
sg10
I13
sg11
I0
sa(dp1216
g3
I1
sg4
I146
sg5
I19
sg6
I86
sg7
I63
sg8
I20502
sg9
I8
sg10
I0
sg11
I0
sa(dp1217
g3
I2
sg4
I146
sg5
I9
sg6
I89
sg7
I31
sg8
I22879
sg9
I16
sg10
I0
sg11
I0
sa(dp1218
g3
I4
sg4
I390
sg5
I2
sg6
I11
sg7
I106
sg8
I22147
sg9
I13
sg10
I0
sg11
I0
sa(dp1219
g3
I0
sg4
I0
sg5
I0
sg6
I0
sg7
I0
sg8
I3742
sg9
I6
sg10
I0
sg11
I0
sa(dp1220
g3
I0
sg4
I4
sg5
I0
sg6
I0
sg7
I2
sg8
I23187
sg9
I4
sg10
I0
sg11
I0
sa(dp1221
g3
I1
sg4
I108
sg5
I10
sg6
I52
sg7
I42
sg8
I11493
sg9
I13
sg10
I0
sg11
I0
sa(dp1222
g3
I1
sg4
I146
sg5
I20
sg6
I250
sg7
I57
sg8
I13380
sg9
I11
sg10
I0
sg11
I2
sa(dp1223
g3
I3
sg4
I860
sg5
I39
sg6
I317
sg7
I206
sg8
I6700
sg9
I13
sg10
I0
sg11
I3
sa(dp1224
g3
I0
sg4
I55
sg5
I2
sg6
I35
sg7
I12
sg8
I23081
sg9
I14
sg10
I2
sg11
I0
sa(dp1225
g3
I1
sg4
I137
sg5
I10
sg6
I65
sg7
I29
sg8
I6384
sg9
I7
sg10
I0
sg11
I1
sa(dp1226
g3
I0
sg4
I105
sg5
I5
sg6
I14
sg7
I23
sg8
I22632
sg9
I9
sg10
I0
sg11
I0
sa(dp1227
g3
I0
sg4
I61
sg5
I7
sg6
I50
sg7
I14
sg8
I7046
sg9
I8
sg10
I0
sg11
I0
sa(dp1228
g3
I1
sg4
I257
sg5
I13
sg6
I108
sg7
I77
sg8
I22932
sg9
I12
sg10
I0
sg11
I0
sa(dp1229
g3
I0
sg4
I20
sg5
I0
sg6
I0
sg7
I5
sg8
I18321
sg9
I3
sg10
I0
sg11
I0
sa(dp1230
g3
I0
sg4
I9
sg5
I0
sg6
I0
sg7
I1
sg8
I14353
sg9
I12
sg10
I0
sg11
I0
sa(dp1231
g3
I4
sg4
I360
sg5
I17
sg6
I86
sg7
I102
sg8
I2597
sg9
I14
sg10
I33
sg11
I1
sa(dp1232
g3
I0
sg4
I9
sg5
I0
sg6
I0
sg7
I4
sg8
I3373
sg9
I1
sg10
I0
sg11
I0
sa(dp1233
g3
I1
sg4
I551
sg5
I31
sg6
I197
sg7
I130
sg8
I2739
sg9
I14
sg10
I0
sg11
I0
sa(dp1234
g3
I2
sg4
I384
sg5
I22
sg6
I231
sg7
I81
sg8
I6808
sg9
I16
sg10
I0
sg11
I0
sa(dp1235
g3
I0
sg4
I3
sg5
I1
sg6
I11
sg7
I1
sg8
I18749
sg9
I6
sg10
I0
sg11
I0
sa(dp1236
g3
I7
sg4
I570
sg5
I54
sg6
I420
sg7
I136
sg8
I7526
sg9
I14
sg10
I0
sg11
I1
sa(dp1237
g3
I7
sg4
I99
sg5
I0
sg6
I0
sg7
I38
sg8
I10861
sg9
I17
sg10
I0
sg11
I0
sa(dp1238
g3
I0
sg4
I0
sg5
I0
sg6
I0
sg7
I0
sg8
I404
sg9
I2
sg10
I0
sg11
I0
sa(dp1239
g3
I0
sg4
I74
sg5
I4
sg6
I45
sg7
I18
sg8
I10005
sg9
I14
sg10
I0
sg11
I1
sa(dp1240
g3
I0
sg4
I72
sg5
I11
sg6
I153
sg7
I19
sg8
I19953
sg9
I9
sg10
I0
sg11
I0
sa(dp1241
g3
I0
sg4
I0
sg5
I0
sg6
I0
sg7
I0
sg8
I14408
sg9
I2
sg10
I0
sg11
I0
sa(dp1242
g3
I1
sg4
I145
sg5
I1
sg6
I1
sg7
I43
sg8
I23789
sg9
I13
sg10
I0
sg11
I0
sa(dp1243
g3
I0
sg4
I3
sg5
I1
sg6
I12
sg7
I1
sg8
I24739
sg9
I7
sg10
I0
sg11
I0
sa(dp1244
g3
I1
sg4
I442
sg5
I8
sg6
I55
sg7
I94
sg8
I16924
sg9
I15
sg10
I0
sg11
I2
sa(dp1245
g3
I1
sg4
I128
sg5
I3
sg6
I13
sg7
I27
sg8
I24538
sg9
I18
sg10
I4
sg11
I0
sa(dp1246
g3
I0
sg4
I7
sg5
I0
sg6
I0
sg7
I2
sg8
I13745
sg9
I2
sg10
I0
sg11
I0
sa(dp1247
g3
I0
sg4
I53
sg5
I0
sg6
I0
sg7
I12
sg8
I24865
sg9
I8
sg10
I0
sg11
I0
sa(dp1248
g8
I12171
sa(dp1249
g3
I7
sg4
I636
sg5
I98
sg6
I896
sg7
I171
sg8
I3116
sg9
I18
sg10
I136
sg11
I3
sa(dp1250
g3
I0
sg4
I0
sg5
I0
sg6
I0
sg7
I0
sg8
I11040
sg9
I6
sg10
I0
sg11
I0
sa(dp1251
g3
I0
sg4
I0
sg5
I0
sg6
I0
sg7
I0
sg8
I9944
sg9
I1
sg10
I0
sg11
I0
sa(dp1252
g3
I4
sg4
I226
sg5
I9
sg6
I76
sg7
I67
sg8
I14752
sg9
I16
sg10
I0
sg11
I2
sa(dp1253
g3
I0
sg4
I0
sg5
I0
sg6
I0
sg7
I0
sg8
I5883
sg9
I1
sg10
I0
sg11
I0
sa(dp1254
g3
I0
sg4
I271
sg5
I20
sg6
I135
sg7
I75
sg8
I12517
sg9
I11
sg10
I0
sg11
I2
sa(dp1255
g3
I0
sg4
I8
sg5
I0
sg6
I0
sg7
I3
sg8
I269
sg9
I5
sg10
I0
sg11
I0
sa(dp1256
g3
I11
sg4
I937
sg5
I24
sg6
I228
sg7
I241
sg8
I20608
sg9
I16
sg10
I0
sg11
I0
sa(dp1257
g3
I0
sg4
I0
sg5
I0
sg6
I0
sg7
I0
sg8
I22003
sg9
I7
sg10
I0
sg11
I0
sa(dp1258
g3
I0
sg4
I0
sg5
I0
sg6
I0
sg7
I0
sg8
I16504
sg9
I3
sg10
I0
sg11
I0
sa(dp1259
g3
I0
sg4
I13
sg5
I2
sg6
I22
sg7
I2
sg8
I12610
sg9
I14
sg10
I0
sg11
I0
sa(dp1260
g3
I0
sg4
I81
sg5
I0
sg6
I0
sg7
I23
sg8
I6625
sg9
I9
sg10
I0
sg11
I0
sa(dp1261
g3
I0
sg4
I0
sg5
I0
sg6
I0
sg7
I0
sg8
I24193
sg9
I6
sg10
I0
sg11
I0
sa(dp1262
g3
I0
sg4
I12
sg5
I16
sg6
I180
sg7
I5
sg8
I3592
sg9
I11
sg10
I0
sg11
I3
sa(dp1263
g3
I0
sg4
I21
sg5
I0
sg6
I0
sg7
I4
sg8
I7069
sg9
I11
sg10
I0
sg11
I0
sa(dp1264
g3
I0
sg4
I0
sg5
I0
sg6
I0
sg7
I0
sg8
I18329
sg9
I2
sg10
I0
sg11
I0
sa(dp1265
g3
I0
sg4
I0
sg5
I0
sg6
I0
sg7
I0
sg8
I14468
sg9
I1
sg10
I0
sg11
I0
sa(dp1266
g3
I1
sg4
I534
sg5
I32
sg6
I253
sg7
I116
sg8
I23411
sg9
I16
sg10
I43
sg11
I1
sa(dp1267
g3
I0
sg4
I0
sg5
I0
sg6
I0
sg7
I0
sg8
I13218
sg9
I11
sg10
I0
sg11
I0
sa(dp1268
g3
I0
sg4
I0
sg5
I1
sg6
I9
sg7
I0
sg8
I3758
sg9
I3
sg10
I1
sg11
I0
sa(dp1269
g3
I4
sg4
I888
sg5
I34
sg6
I302
sg7
I202
sg8
I2667
sg9
I14
sg10
I0
sg11
I0
sa(dp1270
g3
I0
sg4
I69
sg5
I2
sg6
I10
sg7
I17
sg8
I17556
sg9
I16
sg10
I0
sg11
I0
sa(dp1271
g3
I0
sg4
I127
sg5
I6
sg6
I58
sg7
I32
sg8
I14225
sg9
I10
sg10
I7
sg11
I0
sa(dp1272
g3
I0
sg4
I73
sg5
I0
sg6
I0
sg7
I19
sg8
I24484
sg9
I13
sg10
I0
sg11
I0
sa(dp1273
g3
I2
sg4
I640
sg5
I49
sg6
I379
sg7
I151
sg8
I9577
sg9
I15
sg10
I59
sg11
I1
sa(dp1274
g3
I0
sg4
I0
sg5
I0
sg6
I0
sg7
I1
sg8
I23839
sg9
I1
sg10
I0
sg11
I0
sa(dp1275
g3
I0
sg4
I0
sg5
I0
sg6
I0
sg7
I0
sg8
I18418
sg9
I1
sg10
I0
sg11
I0
sa(dp1276
g3
I2
sg4
I362
sg5
I16
sg6
I154
sg7
I96
sg8
I9781
sg9
I9
sg10
I25
sg11
I0
sa(dp1277
g3
I1
sg4
I102
sg5
I1
sg6
I-3
sg7
I23
sg8
I13269
sg9
I15
sg10
I1
sg11
I0
sa(dp1278
g3
I1
sg4
I55
sg5
I0
sg6
I0
sg7
I20
sg8
I21332
sg9
I14
sg10
I0
sg11
I0
sa(dp1279
g3
I0
sg4
I74
sg5
I2
sg6
I44
sg7
I20
sg8
I10780
sg9
I13
sg10
I0
sg11
I1
sa(dp1280
g3
I0
sg4
I254
sg5
I13
sg6
I119
sg7
I61
sg8
I13716
sg9
I14
sg10
I0
sg11
I0
sa(dp1281
g3
I1
sg4
I83
sg5
I3
sg6
I24
sg7
I24
sg8
I23467
sg9
I6
sg10
I0
sg11
I0
sa(dp1282
g3
I0
sg4
I19
sg5
I3
sg6
I44
sg7
I6
sg8
I3790
sg9
I10
sg10
I3
sg11
I0
sa(dp1283
g3
I0
sg4
I486
sg5
I18
sg6
I189
sg7
I122
sg8
I17382
sg9
I15
sg10
I29
sg11
I0
sa(dp1284
g8
I5867
sa(dp1285
g3
I1
sg4
I64
sg5
I2
sg6
I15
sg7
I30
sg8
I5353
sg9
I13
sg10
I9
sg11
I0
sa(dp1286
g3
I12
sg4
I1341
sg5
I19
sg6
I268
sg7
I238
sg8
I17463
sg9
I14
sg10
I28
sg11
I1
sa(dp1287
g3
I0
sg4
I17
sg5
I0
sg6
I0
sg7
I8
sg8
I15884
sg9
I16
sg10
I0
sg11
I0
sa(dp1288
g3
I1
sg4
I232
sg5
I10
sg6
I44
sg7
I60
sg8
I10722
sg9
I7
sg10
I0
sg11
I0
sa(dp1289
g3
I0
sg4
I217
sg5
I31
sg6
I244
sg7
I62
sg8
I23340
sg9
I13
sg10
I0
sg11
I0
sa(dp1290
g3
I1
sg4
I41
sg5
I1
sg6
I11
sg7
I9
sg8
I10687
sg9
I3
sg10
I0
sg11
I0
sa(dp1291
g3
I0
sg4
I5
sg5
I1
sg6
I6
sg7
I2
sg8
I20760
sg9
I11
sg10
I2
sg11
I0
sa(dp1292
g3
I0
sg4
I0
sg5
I7
sg6
I50
sg7
I0
sg8
I2209
sg9
I3
sg10
I0
sg11
I2
sa(dp1293
g3
I8
sg4
I264
sg5
I22
sg6
I169
sg7
I91
sg8
I3582
sg9
I16
sg10
I35
sg11
I1
sa(dp1294
g3
I0
sg4
I62
sg5
I10
sg6
I99
sg7
I16
sg8
I20236
sg9
I16
sg10
I0
sg11
I1
sa(dp1295
g3
I4
sg4
I1114
sg5
I44
sg6
I496
sg7
I260
sg8
I6102
sg9
I18
sg10
I67
sg11
I3
sa(dp1296
g3
I0
sg4
I0
sg5
I0
sg6
I0
sg7
I0
sg8
I22362
sg9
I1
sg10
I0
sg11
I0
sa(dp1297
g3
I0
sg4
I17
sg5
I0
sg6
I0
sg7
I5
sg8
I18627
sg9
I1
sg10
I0
sg11
I0
sa(dp1298
g3
I0
sg4
I29
sg5
I0
sg6
I0
sg7
I3
sg8
I18653
sg9
I12
sg10
I0
sg11
I0
sa(dp1299
g3
I0
sg4
I9
sg5
I0
sg6
I0
sg7
I3
sg8
I5724
sg9
I8
sg10
I0
sg11
I0
sa(dp1300
g3
I2
sg4
I237
sg5
I11
sg6
I106
sg7
I44
sg8
I11415
sg9
I14
sg10
I0
sg11
I0
sa(dp1301
g3
I0
sg4
I15
sg5
I4
sg6
I35
sg7
I3
sg8
I13241
sg9
I11
sg10
I6
sg11
I0
sa(dp1302
g3
I0
sg4
I0
sg5
I0
sg6
I0
sg7
I0
sg8
I9507
sg9
I2
sg10
I0
sg11
I0
sa(dp1303
g3
I0
sg4
I21
sg5
I15
sg6
I138
sg7
I7
sg8
I8780
sg9
I14
sg10
I21
sg11
I0
sa(dp1304
g3
I1
sg4
I235
sg5
I4
sg6
I33
sg7
I56
sg8
I18952
sg9
I11
sg10
I0
sg11
I0
sa(dp1305
g3
I1
sg4
I136
sg5
I10
sg6
I109
sg7
I34
sg8
I15436
sg9
I8
sg10
I0
sg11
I1
sa(dp1306
g3
I0
sg4
I0
sg5
I0
sg6
I0
sg7
I0
sg8
I4743
sg9
I3
sg10
I0
sg11
I0
sa(dp1307
g3
I2
sg4
I274
sg5
I2
sg6
I11
sg7
I56
sg8
I1954
sg9
I12
sg10
I2
sg11
I0
sa(dp1308
g3
I1
sg4
I115
sg5
I7
sg6
I73
sg7
I43
sg8
I13275
sg9
I6
sg10
I0
sg11
I0
sa(dp1309
g3
I0
sg4
I4
sg5
I0
sg6
I0
sg7
I1
sg8
I23363
sg9
I1
sg10
I0
sg11
I0
sa(dp1310
g3
I0
sg4
I197
sg5
I8
sg6
I39
sg7
I66
sg8
I8026
sg9
I13
sg10
I9
sg11
I0
sa(dp1311
g3
I0
sg4
I41
sg5
I2
sg6
I6
sg7
I18
sg8
I9191
sg9
I6
sg10
I2
sg11
I0
sa(dp1312
g3
I0
sg4
I0
sg5
I0
sg6
I0
sg7
I1
sg8
I7282
sg9
I14
sg10
I0
sg11
I0
sa(dp1313
g3
I0
sg4
I0
sg5
I0
sg6
I0
sg7
I0
sg8
I20029
sg9
I12
sg10
I0
sg11
I0
sa(dp1314
g3
I2
sg4
I306
sg5
I21
sg6
I81
sg7
I76
sg8
I6952
sg9
I16
sg10
I25
sg11
I0
sa(dp1315
g3
I0
sg4
I11
sg5
I1
sg6
I6
sg7
I3
sg8
I8341
sg9
I4
sg10
I1
sg11
I0
sa(dp1316
g3
I1
sg4
I140
sg5
I5
sg6
I27
sg7
I26
sg8
I1007
sg9
I7
sg10
I5
sg11
I0
sa(dp1317
g3
I0
sg4
I7
sg5
I0
sg6
I0
sg7
I5
sg8
I3049
sg9
I10
sg10
I0
sg11
I0
sa(dp1318
g3
I0
sg4
I0
sg5
I0
sg6
I0
sg7
I0
sg8
I19244
sg9
I2
sg10
I0
sg11
I0
sa(dp1319
g3
I0
sg4
I76
sg5
I2
sg6
I21
sg7
I24
sg8
I6524
sg9
I8
sg10
I0
sg11
I0
sa(dp1320
g3
I0
sg4
I0
sg5
I0
sg6
I0
sg7
I0
sg8
I19110
sg9
I5
sg10
I0
sg11
I0
sa(dp1321
g3
I0
sg4
I1
sg5
I0
sg6
I0
sg7
I1
sg8
I7265
sg9
I14
sg10
I0
sg11
I0
sa(dp1322
g3
I9
sg4
I741
sg5
I58
sg6
I503
sg7
I186
sg8
I4714
sg9
I18
sg10
I0
sg11
I4
sa(dp1323
g3
I3
sg4
I168
sg5
I9
sg6
I47
sg7
I56
sg8
I3958
sg9
I16
sg10
I9
sg11
I0
sa(dp1324
g3
I0
sg4
I76
sg5
I2
sg6
I16
sg7
I29
sg8
I4818
sg9
I6
sg10
I5
sg11
I0
sa(dp1325
g3
I0
sg4
I7
sg5
I7
sg6
I29
sg7
I7
sg8
I7294
sg9
I8
sg10
I0
sg11
I1
sa(dp1326
g3
I0
sg4
I17
sg5
I0
sg6
I0
sg7
I7
sg8
I4055
sg9
I3
sg10
I0
sg11
I0
sa(dp1327
g3
I9
sg4
I1018
sg5
I3
sg6
I16
sg7
I263
sg8
I15733
sg9
I16
sg10
I7
sg11
I0
sa(dp1328
g3
I0
sg4
I134
sg5
I1
sg6
I7
sg7
I23
sg8
I16084
sg9
I8
sg10
I0
sg11
I0
sa(dp1329
g3
I0
sg4
I0
sg5
I0
sg6
I0
sg7
I0
sg8
I11810
sg9
I2
sg10
I0
sg11
I0
sa(dp1330
g3
I0
sg4
I-1
sg5
I0
sg6
I0
sg7
I2
sg8
I20690
sg9
I2
sg10
I0
sg11
I0
sa(dp1331
g3
I0
sg4
I42
sg5
I1
sg6
I2
sg7
I12
sg8
I20098
sg9
I2
sg10
I0
sg11
I0
sa(dp1332
g3
I3
sg4
I42
sg5
I23
sg6
I230
sg7
I18
sg8
I4703
sg9
I9
sg10
I0
sg11
I1
sa(dp1333
g3
I0
sg4
I2
sg5
I0
sg6
I0
sg7
I1
sg8
I3489
sg9
I14
sg10
I0
sg11
I0
sa(dp1334
g3
I2
sg4
I79
sg5
I0
sg6
I0
sg7
I23
sg8
I4881
sg9
I7
sg10
I0
sg11
I0
sa(dp1335
g3
I0
sg4
I0
sg5
I0
sg6
I0
sg7
I0
sg8
I1507
sg9
I1
sg10
I0
sg11
I0
sa(dp1336
g3
I0
sg4
I101
sg5
I2
sg6
I18
sg7
I24
sg8
I13261
sg9
I16
sg10
I0
sg11
I0
sa(dp1337
g3
I1
sg4
I11
sg5
I0
sg6
I0
sg7
I6
sg8
I23284
sg9
I16
sg10
I0
sg11
I0
sa(dp1338
g3
I0
sg4
I0
sg5
I0
sg6
I0
sg7
I0
sg8
I5889
sg9
I1
sg10
I0
sg11
I0
sa(dp1339
g3
I1
sg4
I233
sg5
I4
sg6
I41
sg7
I62
sg8
I1677
sg9
I14
sg10
I0
sg11
I0
sa(dp1340
g3
I2
sg4
I373
sg5
I32
sg6
I208
sg7
I112
sg8
I11713
sg9
I14
sg10
I46
sg11
I0
sa(dp1341
g3
I2
sg4
I230
sg5
I6
sg6
I34
sg7
I98
sg8
I10042
sg9
I13
sg10
I11
sg11
I0
sa(dp1342
g3
I0
sg4
I308
sg5
I16
sg6
I172
sg7
I62
sg8
I1221
sg9
I13
sg10
I19
sg11
I0
sa(dp1343
g3
I5
sg4
I778
sg5
I32
sg6
I253
sg7
I189
sg8
I23966
sg9
I14
sg10
I0
sg11
I4
sa(dp1344
g3
I10
sg4
I1074
sg5
I7
sg6
I56
sg7
I296
sg8
I19376
sg9
I16
sg10
I13
sg11
I0
sa(dp1345
g3
I0
sg4
I0
sg5
I0
sg6
I0
sg7
I0
sg8
I14448
sg9
I1
sg10
I0
sg11
I0
sa(dp1346
g3
I2
sg4
I472
sg5
I21
sg6
I185
sg7
I92
sg8
I3862
sg9
I16
sg10
I30
sg11
I0
sa(dp1347
g3
I1
sg4
I58
sg5
I4
sg6
I59
sg7
I14
sg8
I18557
sg9
I14
sg10
I0
sg11
I1
sa(dp1348
g3
I0
sg4
I6
sg5
I1
sg6
I7
sg7
I2
sg8
I21156
sg9
I10
sg10
I0
sg11
I0
sa(dp1349
g3
I7
sg4
I1160
sg5
I29
sg6
I297
sg7
I235
sg8
I13796
sg9
I17
sg10
I0
sg11
I3
sa(dp1350
g3
I0
sg4
I21
sg5
I0
sg6
I0
sg7
I6
sg8
I23566
sg9
I5
sg10
I0
sg11
I0
sa(dp1351
g3
I1
sg4
I147
sg5
I4
sg6
I35
sg7
I32
sg8
I11622
sg9
I14
sg10
I0
sg11
I0
sa(dp1352
g3
I0
sg4
I23
sg5
I4
sg6
I84
sg7
I4
sg8
I18662
sg9
I1
sg10
I0
sg11
I2
sa(dp1353
g3
I0
sg4
I0
sg5
I0
sg6
I0
sg7
I0
sg8
I8883
sg9
I10
sg10
I0
sg11
I0
sa(dp1354
g3
I0
sg4
I328
sg5
I9
sg6
I68
sg7
I56
sg8
I19187
sg9
I6
sg10
I14
sg11
I0
sa(dp1355
g3
I2
sg4
I625
sg5
I31
sg6
I242
sg7
I155
sg8
I7178
sg9
I18
sg10
I43
sg11
I2
sa(dp1356
g3
I7
sg4
I318
sg5
I25
sg6
I191
sg7
I73
sg8
I2741
sg9
I16
sg10
I0
sg11
I0
sa(dp1357
g3
I0
sg4
I19
sg5
I0
sg6
I0
sg7
I4
sg8
I9124
sg9
I6
sg10
I0
sg11
I0
sa(dp1358
g3
I0
sg4
I231
sg5
I7
sg6
I68
sg7
I63
sg8
I8082
sg9
I14
sg10
I0
sg11
I0
sa(dp1359
g3
I4
sg4
I554
sg5
I16
sg6
I136
sg7
I81
sg8
I10731
sg9
I7
sg10
I0
sg11
I2
sa(dp1360
g3
I4
sg4
I223
sg5
I10
sg6
I60
sg7
I52
sg8
I14680
sg9
I6
sg10
I0
sg11
I0
sa(dp1361
g3
I0
sg4
I21
sg5
I0
sg6
I0
sg7
I6
sg8
I24398
sg9
I1
sg10
I0
sg11
I0
sa(dp1362
g3
I3
sg4
I370
sg5
I8
sg6
I16
sg7
I70
sg8
I11487
sg9
I8
sg10
I16
sg11
I0
sa(dp1363
g3
I0
sg4
I0
sg5
I0
sg6
I0
sg7
I0
sg8
I3176
sg9
I1
sg10
I0
sg11
I0
sa(dp1364
g3
I0
sg4
I0
sg5
I1
sg6
I4
sg7
I0
sg8
I8277
sg9
I7
sg10
I2
sg11
I0
sa(dp1365
g3
I5
sg4
I579
sg5
I15
sg6
I129
sg7
I107
sg8
I20729
sg9
I15
sg10
I20
sg11
I0
sa(dp1366
g3
I0
sg4
I32
sg5
I3
sg6
I13
sg7
I11
sg8
I15689
sg9
I11
sg10
I7
sg11
I0
sa(dp1367
g3
I0
sg4
I0
sg5
I0
sg6
I0
sg7
I0
sg8
I17867
sg9
I1
sg10
I0
sg11
I0
sa(dp1368
g3
I10
sg4
I1171
sg5
I27
sg6
I215
sg7
I235
sg8
I9856
sg9
I17
sg10
I32
sg11
I0
sa(dp1369
g3
I0
sg4
I247
sg5
I14
sg6
I92
sg7
I68
sg8
I22230
sg9
I14
sg10
I0
sg11
I0
sa(dp1370
g3
I4
sg4
I661
sg5
I41
sg6
I317
sg7
I160
sg8
I14591
sg9
I17
sg10
I57
sg11
I0
sa(dp1371
g3
I1
sg4
I392
sg5
I2
sg6
I14
sg7
I87
sg8
I4263
sg9
I12
sg10
I11
sg11
I0
sa(dp1372
g3
I0
sg4
I179
sg5
I20
sg6
I121
sg7
I42
sg8
I24418
sg9
I16
sg10
I0
sg11
I2
sa(dp1373
g3
I0
sg4
I155
sg5
I4
sg6
I27
sg7
I24
sg8
I17031
sg9
I12
sg10
I0
sg11
I0
sa(dp1374
g3
I1
sg4
I275
sg5
I15
sg6
I112
sg7
I92
sg8
I15223
sg9
I16
sg10
I0
sg11
I1
sa(dp1375
g3
I0
sg4
I0
sg5
I0
sg6
I0
sg7
I0
sg8
I5943
sg9
I1
sg10
I0
sg11
I0
sa(dp1376
g3
I0
sg4
I128
sg5
I5
sg6
I51
sg7
I34
sg8
I9552
sg9
I3
sg10
I0
sg11
I1
sa(dp1377
g3
I0
sg4
I126
sg5
I1
sg6
I8
sg7
I27
sg8
I13993
sg9
I14
sg10
I0
sg11
I0
sa(dp1378
g3
I0
sg4
I22
sg5
I3
sg6
I25
sg7
I8
sg8
I5766
sg9
I2
sg10
I0
sg11
I0
sa(dp1379
g3
I1
sg4
I396
sg5
I28
sg6
I191
sg7
I110
sg8
I5515
sg9
I14
sg10
I0
sg11
I2
sa(dp1380
g3
I0
sg4
I0
sg5
I0
sg6
I0
sg7
I0
sg8
I24118
sg9
I14
sg10
I0
sg11
I0
sa(dp1381
g3
I0
sg4
I-2
sg5
I0
sg6
I0
sg7
I3
sg8
I3580
sg9
I17
sg10
I0
sg11
I0
sa(dp1382
g3
I0
sg4
I55
sg5
I28
sg6
I236
sg7
I15
sg8
I22077
sg9
I14
sg10
I0
sg11
I1
sa(dp1383
g3
I0
sg4
I9
sg5
I1
sg6
I9
sg7
I4
sg8
I23314
sg9
I6
sg10
I1
sg11
I0
sa(dp1384
g3
I1
sg4
I155
sg5
I4
sg6
I66
sg7
I33
sg8
I15993
sg9
I5
sg10
I0
sg11
I0
sa(dp1385
g3
I0
sg4
I28
sg5
I0
sg6
I0
sg7
I9
sg8
I6145
sg9
I1
sg10
I0
sg11
I0
sa(dp1386
g3
I0
sg4
I0
sg5
I0
sg6
I0
sg7
I0
sg8
I10823
sg9
I2
sg10
I0
sg11
I0
sa(dp1387
g3
I2
sg4
I35
sg5
I9
sg6
I247
sg7
I9
sg8
I2744
sg9
I11
sg10
I0
sg11
I2
sa(dp1388
g3
I0
sg4
I128
sg5
I3
sg6
I25
sg7
I35
sg8
I4105
sg9
I11
sg10
I3
sg11
I0
sa(dp1389
g3
I11
sg4
I950
sg5
I51
sg6
I367
sg7
I267
sg8
I18630
sg9
I15
sg10
I70
sg11
I1
sa(dp1390
g3
I0
sg4
I117
sg5
I16
sg6
I166
sg7
I40
sg8
I17625
sg9
I8
sg10
I0
sg11
I0
sa(dp1391
g3
I2
sg4
I80
sg5
I1
sg6
I13
sg7
I22
sg8
I3789
sg9
I6
sg10
I0
sg11
I0
sa(dp1392
g3
I1
sg4
I416
sg5
I5
sg6
I30
sg7
I110
sg8
I21133
sg9
I7
sg10
I8
sg11
I0
sa(dp1393
g3
I0
sg4
I0
sg5
I0
sg6
I0
sg7
I0
sg8
I8067
sg9
I2
sg10
I0
sg11
I0
sa(dp1394
g3
I0
sg4
I8
sg5
I5
sg6
I31
sg7
I4
sg8
I14038
sg9
I14
sg10
I7
sg11
I0
sa(dp1395
g3
I8
sg4
I433
sg5
I4
sg6
I23
sg7
I122
sg8
I9786
sg9
I9
sg10
I8
sg11
I0
sa(dp1396
g3
I0
sg4
I0
sg5
I1
sg6
I2
sg7
I0
sg8
I6275
sg9
I14
sg10
I0
sg11
I0
sa(dp1397
g3
I0
sg4
I54
sg5
I2
sg6
I29
sg7
I19
sg8
I22440
sg9
I16
sg10
I2
sg11
I0
sa(dp1398
g3
I1
sg4
I243
sg5
I10
sg6
I91
sg7
I53
sg8
I1903
sg9
I12
sg10
I0
sg11
I0
sa(dp1399
g3
I0
sg4
I0
sg5
I0
sg6
I0
sg7
I0
sg8
I6687
sg9
I3
sg10
I0
sg11
I0
sa(dp1400
g3
I0
sg4
I16
sg5
I1
sg6
I3
sg7
I7
sg8
I10282
sg9
I10
sg10
I1
sg11
I0
sa(dp1401
g3
I2
sg4
I212
sg5
I14
sg6
I105
sg7
I53
sg8
I22364
sg9
I16
sg10
I16
sg11
I1
sa(dp1402
g3
I5
sg4
I275
sg5
I3
sg6
I37
sg7
I74
sg8
I8417
sg9
I9
sg10
I6
sg11
I0
sa(dp1403
g3
I6
sg4
I579
sg5
I8
sg6
I62
sg7
I151
sg8
I1248
sg9
I11
sg10
I9
sg11
I0
sa(dp1404
g3
I0
sg4
I0
sg5
I0
sg6
I0
sg7
I0
sg8
I23538
sg9
I1
sg10
I0
sg11
I0
sa(dp1405
g3
I2
sg4
I224
sg5
I13
sg6
I152
sg7
I70
sg8
I24100
sg9
I11
sg10
I16
sg11
I1
sa(dp1406
g3
I2
sg4
I321
sg5
I15
sg6
I97
sg7
I54
sg8
I5191
sg9
I14
sg10
I0
sg11
I0
sa(dp1407
g3
I0
sg4
I1
sg5
I1
sg6
I4
sg7
I1
sg8
I6690
sg9
I2
sg10
I3
sg11
I0
sa(dp1408
g3
I10
sg4
I1106
sg5
I21
sg6
I188
sg7
I229
sg8
I8657
sg9
I13
sg10
I26
sg11
I0
sa(dp1409
g3
I1
sg4
I499
sg5
I8
sg6
I53
sg7
I101
sg8
I3576
sg9
I15
sg10
I0
sg11
I0
sa(dp1410
g3
I0
sg4
I0
sg5
I0
sg6
I0
sg7
I0
sg8
I22655
sg9
I13
sg10
I0
sg11
I0
sa(dp1411
g3
I5
sg4
I343
sg5
I14
sg6
I179
sg7
I68
sg8
I9910
sg9
I12
sg10
I19
sg11
I1
sa(dp1412
g3
I2
sg4
I191
sg5
I11
sg6
I166
sg7
I63
sg8
I731
sg9
I10
sg10
I0
sg11
I0
sa(dp1413
g3
I1
sg4
I43
sg5
I0
sg6
I0
sg7
I13
sg8
I20844
sg9
I7
sg10
I0
sg11
I0
sa(dp1414
g8
I21640
sa(dp1415
g3
I0
sg4
I2
sg5
I0
sg6
I0
sg7
I3
sg8
I20522
sg9
I3
sg10
I0
sg11
I0
sa(dp1416
g3
I0
sg4
I0
sg5
I0
sg6
I0
sg7
I0
sg8
I2353
sg9
I16
sg10
I0
sg11
I0
sa(dp1417
g3
I0
sg4
I0
sg5
I0
sg6
I0
sg7
I0
sg8
I23611
sg9
I2
sg10
I0
sg11
I0
sa(dp1418
g3
I0
sg4
I127
sg5
I4
sg6
I28
sg7
I41
sg8
I5512
sg9
I8
sg10
I6
sg11
I0
sa(dp1419
g3
I1
sg4
I195
sg5
I1
sg6
I10
sg7
I45
sg8
I13402
sg9
I15
sg10
I3
sg11
I0
sa(dp1420
g3
I0
sg4
I348
sg5
I13
sg6
I86
sg7
I118
sg8
I21824
sg9
I10
sg10
I0
sg11
I0
sa(dp1421
g3
I0
sg4
I260
sg5
I14
sg6
I61
sg7
I63
sg8
I7545
sg9
I8
sg10
I21
sg11
I1
sa(dp1422
g3
I0
sg4
I0
sg5
I1
sg6
I12
sg7
I1
sg8
I5239
sg9
I6
sg10
I3
sg11
I0
sa(dp1423
g3
I0
sg4
I95
sg5
I3
sg6
I30
sg7
I36
sg8
I16175
sg9
I13
sg10
I4
sg11
I0
sa(dp1424
g3
I2
sg4
I295
sg5
I15
sg6
I181
sg7
I63
sg8
I3247
sg9
I10
sg10
I0
sg11
I2
sa(dp1425
g3
I0
sg4
I0
sg5
I0
sg6
I0
sg7
I0
sg8
I18744
sg9
I3
sg10
I0
sg11
I0
sa(dp1426
g3
I0
sg4
I224
sg5
I21
sg6
I261
sg7
I52
sg8
I17273
sg9
I11
sg10
I0
sg11
I0
sa(dp1427
g3
I5
sg4
I926
sg5
I25
sg6
I241
sg7
I234
sg8
I11314
sg9
I14
sg10
I0
sg11
I0
sa(dp1428
g3
I0
sg4
I0
sg5
I2
sg6
I22
sg7
I0
sg8
I6730
sg9
I1
sg10
I2
sg11
I0
sa(dp1429
g3
I0
sg4
I20
sg5
I1
sg6
I7
sg7
I2
sg8
I22832
sg9
I3
sg10
I0
sg11
I0
sa(dp1430
g3
I3
sg4
I269
sg5
I18
sg6
I133
sg7
I83
sg8
I15514
sg9
I14
sg10
I0
sg11
I1
sa(dp1431
g3
I0
sg4
I2
sg5
I2
sg6
I35
sg7
I2
sg8
I296
sg9
I7
sg10
I0
sg11
I1
sa(dp1432
g3
I0
sg4
I16
sg5
I2
sg6
I14
sg7
I5
sg8
I24346
sg9
I3
sg10
I0
sg11
I0
sa(dp1433
g3
I1
sg4
I223
sg5
I5
sg6
I28
sg7
I55
sg8
I1040
sg9
I15
sg10
I6
sg11
I0
sa(dp1434
g3
I1
sg4
I20
sg5
I0
sg6
I0
sg7
I4
sg8
I24629
sg9
I2
sg10
I0
sg11
I0
sa(dp1435
g3
I0
sg4
I51
sg5
I3
sg6
I10
sg7
I10
sg8
I9475
sg9
I14
sg10
I7
sg11
I0
sa(dp1436
g3
I0
sg4
I47
sg5
I0
sg6
I0
sg7
I13
sg8
I10516
sg9
I16
sg10
I0
sg11
I0
sa(dp1437
g3
I1
sg4
I126
sg5
I4
sg6
I27
sg7
I29
sg8
I1551
sg9
I9
sg10
I8
sg11
I0
sa(dp1438
g3
I1
sg4
I48
sg5
I0
sg6
I0
sg7
I9
sg8
I6249
sg9
I11
sg10
I0
sg11
I0
sa(dp1439
g3
I1
sg4
I22
sg5
I7
sg6
I43
sg7
I6
sg8
I9382
sg9
I15
sg10
I12
sg11
I0
sa(dp1440
g3
I2
sg4
I424
sg5
I17
sg6
I143
sg7
I82
sg8
I16093
sg9
I15
sg10
I23
sg11
I0
sa(dp1441
g3
I2
sg4
I164
sg5
I8
sg6
I61
sg7
I54
sg8
I18195
sg9
I13
sg10
I10
sg11
I0
sa(dp1442
g3
I0
sg4
I283
sg5
I24
sg6
I157
sg7
I74
sg8
I21004
sg9
I14
sg10
I30
sg11
I1
sa(dp1443
g3
I0
sg4
I23
sg5
I0
sg6
I0
sg7
I9
sg8
I4136
sg9
I3
sg10
I0
sg11
I0
sa(dp1444
g3
I0
sg4
I42
sg5
I1
sg6
I4
sg7
I9
sg8
I9159
sg9
I5
sg10
I2
sg11
I0
sa(dp1445
g3
I0
sg4
I1
sg5
I3
sg6
I33
sg7
I2
sg8
I17404
sg9
I3
sg10
I3
sg11
I0
sa(dp1446
g3
I0
sg4
I0
sg5
I0
sg6
I0
sg7
I0
sg8
I17774
sg9
I1
sg10
I0
sg11
I0
sa(dp1447
g3
I0
sg4
I83
sg5
I7
sg6
I45
sg7
I28
sg8
I12269
sg9
I16
sg10
I0
sg11
I0
sa(dp1448
g3
I0
sg4
I91
sg5
I0
sg6
I0
sg7
I29
sg8
I17662
sg9
I17
sg10
I0
sg11
I0
sa(dp1449
g3
I0
sg4
I2
sg5
I0
sg6
I0
sg7
I1
sg8
I22030
sg9
I1
sg10
I0
sg11
I0
sa(dp1450
g3
I0
sg4
I0
sg5
I2
sg6
I65
sg7
I0
sg8
I13833
sg9
I8
sg10
I2
sg11
I0
sa(dp1451
g3
I0
sg4
I158
sg5
I5
sg6
I57
sg7
I36
sg8
I3425
sg9
I14
sg10
I6
sg11
I0
sa(dp1452
g3
I0
sg4
I0
sg5
I2
sg6
I30
sg7
I0
sg8
I397
sg9
I2
sg10
I0
sg11
I0
sa(dp1453
g3
I0
sg4
I15
sg5
I4
sg6
I5
sg7
I9
sg8
I5237
sg9
I2
sg10
I0
sg11
I0
sa(dp1454
g3
I0
sg4
I43
sg5
I0
sg6
I0
sg7
I9
sg8
I5212
sg9
I4
sg10
I0
sg11
I0
sa(dp1455
g3
I7
sg4
I912
sg5
I20
sg6
I193
sg7
I187
sg8
I10136
sg9
I13
sg10
I0
sg11
I0
sa(dp1456
g3
I0
sg4
I0
sg5
I0
sg6
I0
sg7
I0
sg8
I7567
sg9
I3
sg10
I0
sg11
I0
sa(dp1457
g3
I1
sg4
I37
sg5
I1
sg6
I8
sg7
I10
sg8
I11113
sg9
I3
sg10
I0
sg11
I0
sa(dp1458
g3
I0
sg4
I11
sg5
I1
sg6
I6
sg7
I3
sg8
I16714
sg9
I17
sg10
I0
sg11
I0
sa(dp1459
g3
I0
sg4
I7
sg5
I0
sg6
I0
sg7
I2
sg8
I4080
sg9
I8
sg10
I0
sg11
I0
sa(dp1460
g3
I0
sg4
I12
sg5
I0
sg6
I0
sg7
I6
sg8
I12070
sg9
I15
sg10
I0
sg11
I0
sa(dp1461
g3
I0
sg4
I3
sg5
I0
sg6
I0
sg7
I1
sg8
I11597
sg9
I1
sg10
I0
sg11
I0
sa(dp1462
g3
I0
sg4
I10
sg5
I1
sg6
I14
sg7
I1
sg8
I14248
sg9
I11
sg10
I1
sg11
I0
sa(dp1463
g3
I0
sg4
I35
sg5
I3
sg6
I8
sg7
I12
sg8
I24311
sg9
I11
sg10
I3
sg11
I0
sa(dp1464
g3
I1
sg4
I215
sg5
I18
sg6
I147
sg7
I45
sg8
I15495
sg9
I11
sg10
I0
sg11
I1
sa(dp1465
g3
I0
sg4
I0
sg5
I0
sg6
I0
sg7
I0
sg8
I5565
sg9
I1
sg10
I0
sg11
I0
sa(dp1466
g3
I0
sg4
I50
sg5
I1
sg6
I19
sg7
I11
sg8
I16736
sg9
I2
sg10
I2
sg11
I0
sa(dp1467
g3
I8
sg4
I645
sg5
I10
sg6
I59
sg7
I160
sg8
I15055
sg9
I16
sg10
I18
sg11
I0
sa(dp1468
g3
I4
sg4
I421
sg5
I18
sg6
I186
sg7
I124
sg8
I11887
sg9
I14
sg10
I0
sg11
I0
sa(dp1469
g3
I0
sg4
I175
sg5
I6
sg6
I35
sg7
I31
sg8
I15515
sg9
I16
sg10
I0
sg11
I1
sa(dp1470
g3
I0
sg4
I-1
sg5
I0
sg6
I0
sg7
I1
sg8
I18289
sg9
I3
sg10
I0
sg11
I0
sa(dp1471
g3
I0
sg4
I21
sg5
I0
sg6
I0
sg7
I5
sg8
I19124
sg9
I4
sg10
I0
sg11
I0
sa(dp1472
g3
I5
sg4
I557
sg5
I10
sg6
I79
sg7
I149
sg8
I5998
sg9
I14
sg10
I12
sg11
I0
sa(dp1473
g3
I15
sg4
I1471
sg5
I44
sg6
I421
sg7
I317
sg8
I21850
sg9
I17
sg10
I53
sg11
I3
sa(dp1474
g3
I13
sg4
I1693
sg5
I11
sg6
I77
sg7
I351
sg8
I15817
sg9
I17
sg10
I16
sg11
I0
sa(dp1475
g3
I0
sg4
I0
sg5
I0
sg6
I0
sg7
I0
sg8
I16952
sg9
I14
sg10
I0
sg11
I0
sa(dp1476
g3
I0
sg4
I5
sg5
I2
sg6
I2
sg7
I4
sg8
I497
sg9
I7
sg10
I0
sg11
I0
sa(dp1477
g3
I1
sg4
I18
sg5
I2
sg6
I10
sg7
I6
sg8
I13230
sg9
I16
sg10
I5
sg11
I0
sa(dp1478
g3
I0
sg4
I0
sg5
I1
sg6
I3
sg7
I0
sg8
I16919
sg9
I3
sg10
I1
sg11
I0
sa(dp1479
g3
I8
sg4
I959
sg5
I21
sg6
I239
sg7
I212
sg8
I9827
sg9
I14
sg10
I0
sg11
I0
sa(dp1480
g3
I1
sg4
I93
sg5
I4
sg6
I35
sg7
I30
sg8
I15358
sg9
I15
sg10
I0
sg11
I0
sa(dp1481
g8
I249
sa(dp1482
g3
I0
sg4
I71
sg5
I12
sg6
I86
sg7
I17
sg8
I12104
sg9
I14
sg10
I0
sg11
I1
sa(dp1483
g3
I0
sg4
I0
sg5
I0
sg6
I0
sg7
I0
sg8
I15826
sg9
I3
sg10
I0
sg11
I0
sa(dp1484
g3
I7
sg4
I663
sg5
I32
sg6
I278
sg7
I161
sg8
I17829
sg9
I13
sg10
I0
sg11
I1
sa(dp1485
g3
I0
sg4
I6
sg5
I2
sg6
I7
sg7
I2
sg8
I8554
sg9
I9
sg10
I2
sg11
I0
sa(dp1486
g3
I0
sg4
I0
sg5
I0
sg6
I0
sg7
I0
sg8
I10406
sg9
I3
sg10
I0
sg11
I0
sa(dp1487
g3
I0
sg4
I2
sg5
I0
sg6
I0
sg7
I1
sg8
I2590
sg9
I1
sg10
I0
sg11
I0
sa(dp1488
g3
I0
sg4
I3
sg5
I0
sg6
I0
sg7
I2
sg8
I8727
sg9
I2
sg10
I0
sg11
I0
sa(dp1489
g8
I666
sa(dp1490
g3
I0
sg4
I0
sg5
I0
sg6
I0
sg7
I0
sg8
I1963
sg9
I3
sg10
I0
sg11
I0
sa(dp1491
g3
I3
sg4
I360
sg5
I10
sg6
I139
sg7
I111
sg8
I9508
sg9
I14
sg10
I0
sg11
I0
sa(dp1492
g3
I7
sg4
I1429
sg5
I26
sg6
I244
sg7
I294
sg8
I1679
sg9
I16
sg10
I34
sg11
I0
sa(dp1493
g3
I0
sg4
I53
sg5
I0
sg6
I0
sg7
I15
sg8
I9184
sg9
I4
sg10
I0
sg11
I0
sa(dp1494
g3
I0
sg4
I41
sg5
I3
sg6
I9
sg7
I13
sg8
I7661
sg9
I11
sg10
I0
sg11
I0
sa(dp1495
g3
I3
sg4
I156
sg5
I2
sg6
I4
sg7
I39
sg8
I12319
sg9
I16
sg10
I0
sg11
I0
sa(dp1496
g3
I6
sg4
I659
sg5
I7
sg6
I81
sg7
I200
sg8
I20771
sg9
I13
sg10
I0
sg11
I0
sa(dp1497
g8
I8923
sa(dp1498
g3
I0
sg4
I69
sg5
I0
sg6
I0
sg7
I17
sg8
I14523
sg9
I13
sg10
I0
sg11
I0
sa(dp1499
g3
I0
sg4
I160
sg5
I3
sg6
I10
sg7
I35
sg8
I11909
sg9
I11
sg10
I7
sg11
I0
sa(dp1500
g3
I2
sg4
I243
sg5
I8
sg6
I153
sg7
I77
sg8
I1531
sg9
I13
sg10
I12
sg11
I0
sa(dp1501
g3
I7
sg4
I517
sg5
I11
sg6
I96
sg7
I93
sg8
I24142
sg9
I11
sg10
I14
sg11
I2
sa(dp1502
g3
I0
sg4
I0
sg5
I0
sg6
I0
sg7
I0
sg8
I1694
sg9
I1
sg10
I0
sg11
I0
sa(dp1503
g3
I1
sg4
I80
sg5
I1
sg6
I5
sg7
I15
sg8
I1842
sg9
I2
sg10
I0
sg11
I0
sa(dp1504
g3
I0
sg4
I23
sg5
I1
sg6
I6
sg7
I8
sg8
I20082
sg9
I9
sg10
I1
sg11
I0
sa(dp1505
g3
I1
sg4
I183
sg5
I1
sg6
I5
sg7
I54
sg8
I4247
sg9
I10
sg10
I3
sg11
I0
sa(dp1506
g3
I1
sg4
I30
sg5
I1
sg6
I4
sg7
I11
sg8
I4837
sg9
I7
sg10
I0
sg11
I0
sa(dp1507
g3
I1
sg4
I95
sg5
I8
sg6
I42
sg7
I35
sg8
I17959
sg9
I16
sg10
I0
sg11
I0
sa(dp1508
g3
I0
sg4
I0
sg5
I0
sg6
I0
sg7
I0
sg8
I11645
sg9
I1
sg10
I0
sg11
I0
sa(dp1509
g3
I0
sg4
I0
sg5
I1
sg6
I5
sg7
I0
sg8
I13506
sg9
I16
sg10
I1
sg11
I0
sa(dp1510
g3
I0
sg4
I0
sg5
I0
sg6
I0
sg7
I0
sg8
I5069
sg9
I1
sg10
I0
sg11
I0
sa(dp1511
g3
I1
sg4
I172
sg5
I4
sg6
I11
sg7
I51
sg8
I7713
sg9
I16
sg10
I7
sg11
I0
sa(dp1512
g3
I1
sg4
I335
sg5
I17
sg6
I134
sg7
I103
sg8
I14433
sg9
I14
sg10
I0
sg11
I2
sa(dp1513
g3
I0
sg4
I19
sg5
I0
sg6
I0
sg7
I9
sg8
I20526
sg9
I8
sg10
I0
sg11
I0
sa(dp1514
g3
I0
sg4
I0
sg5
I0
sg6
I0
sg7
I0
sg8
I3000
sg9
I2
sg10
I0
sg11
I0
sa(dp1515
g3
I1
sg4
I49
sg5
I4
sg6
I31
sg7
I25
sg8
I1239
sg9
I12
sg10
I5
sg11
I0
sa(dp1516
g3
I0
sg4
I0
sg5
I0
sg6
I0
sg7
I0
sg8
I21470
sg9
I2
sg10
I0
sg11
I0
sa(dp1517
g3
I0
sg4
I9
sg5
I0
sg6
I0
sg7
I2
sg8
I23979
sg9
I3
sg10
I0
sg11
I0
sa(dp1518
g3
I1
sg4
I85
sg5
I1
sg6
I2
sg7
I20
sg8
I11337
sg9
I6
sg10
I3
sg11
I0
sa(dp1519
g3
I1
sg4
I86
sg5
I9
sg6
I90
sg7
I28
sg8
I22339
sg9
I9
sg10
I13
sg11
I1
sa(dp1520
g8
I20582
sa(dp1521
g3
I0
sg4
I271
sg5
I13
sg6
I85
sg7
I75
sg8
I5318
sg9
I16
sg10
I18
sg11
I0
sa(dp1522
g3
I0
sg4
I5
sg5
I2
sg6
I5
sg7
I4
sg8
I14335
sg9
I16
sg10
I3
sg11
I0
sa(dp1523
g3
I1
sg4
I28
sg5
I1
sg6
I5
sg7
I9
sg8
I23419
sg9
I1
sg10
I1
sg11
I0
sa(dp1524
g3
I0
sg4
I0
sg5
I0
sg6
I0
sg7
I0
sg8
I16810
sg9
I1
sg10
I0
sg11
I0
sa(dp1525
g3
I1
sg4
I285
sg5
I13
sg6
I177
sg7
I69
sg8
I22409
sg9
I12
sg10
I0
sg11
I0
sa(dp1526
g3
I4
sg4
I684
sg5
I25
sg6
I223
sg7
I165
sg8
I9501
sg9
I16
sg10
I0
sg11
I0
sa(dp1527
g3
I1
sg4
I452
sg5
I11
sg6
I97
sg7
I115
sg8
I10311
sg9
I15
sg10
I0
sg11
I0
sa(dp1528
g3
I0
sg4
I0
sg5
I0
sg6
I0
sg7
I0
sg8
I11056
sg9
I13
sg10
I0
sg11
I0
sa(dp1529
g3
I2
sg4
I543
sg5
I1
sg6
I8
sg7
I123
sg8
I14427
sg9
I10
sg10
I0
sg11
I0
sa(dp1530
g3
I0
sg4
I-1
sg5
I0
sg6
I0
sg7
I2
sg8
I454
sg9
I3
sg10
I0
sg11
I0
sa(dp1531
g3
I1
sg4
I377
sg5
I2
sg6
I4
sg7
I115
sg8
I17318
sg9
I18
sg10
I0
sg11
I0
sa(dp1532
g3
I1
sg4
I112
sg5
I3
sg6
I25
sg7
I25
sg8
I7326
sg9
I15
sg10
I0
sg11
I0
sa(dp1533
g3
I0
sg4
I58
sg5
I2
sg6
I17
sg7
I19
sg8
I15112
sg9
I4
sg10
I3
sg11
I0
sa(dp1534
g8
I17608
sa(dp1535
g3
I0
sg4
I19
sg5
I3
sg6
I31
sg7
I12
sg8
I11568
sg9
I5
sg10
I0
sg11
I0
sa(dp1536
g3
I0
sg4
I102
sg5
I2
sg6
I25
sg7
I38
sg8
I10082
sg9
I14
sg10
I6
sg11
I0
sa(dp1537
g3
I0
sg4
I108
sg5
I9
sg6
I117
sg7
I46
sg8
I3143
sg9
I13
sg10
I0
sg11
I1
sa(dp1538
g3
I0
sg4
I94
sg5
I4
sg6
I29
sg7
I27
sg8
I5202
sg9
I6
sg10
I0
sg11
I0
sa(dp1539
g3
I0
sg4
I169
sg5
I9
sg6
I93
sg7
I53
sg8
I4844
sg9
I16
sg10
I0
sg11
I1
sa(dp1540
g3
I0
sg4
I0
sg5
I0
sg6
I0
sg7
I0
sg8
I7936
sg9
I2
sg10
I0
sg11
I0
sa(dp1541
g3
I0
sg4
I33
sg5
I0
sg6
I0
sg7
I6
sg8
I16111
sg9
I2
sg10
I0
sg11
I0
sa(dp1542
g3
I0
sg4
I4
sg5
I1
sg6
I5
sg7
I2
sg8
I8320
sg9
I9
sg10
I3
sg11
I0
sa(dp1543
g3
I1
sg4
I270
sg5
I8
sg6
I77
sg7
I58
sg8
I305
sg9
I6
sg10
I14
sg11
I1
sa(dp1544
g3
I2
sg4
I705
sg5
I21
sg6
I170
sg7
I180
sg8
I2601
sg9
I13
sg10
I32
sg11
I1
sa(dp1545
g3
I0
sg4
I24
sg5
I1
sg6
I2
sg7
I7
sg8
I7176
sg9
I3
sg10
I2
sg11
I0
sa(dp1546
g3
I0
sg4
I72
sg5
I2
sg6
I24
sg7
I21
sg8
I9395
sg9
I7
sg10
I0
sg11
I1
sa(dp1547
g3
I0
sg4
I23
sg5
I1
sg6
I6
sg7
I10
sg8
I19278
sg9
I5
sg10
I1
sg11
I0
sa(dp1548
g3
I0
sg4
I9
sg5
I3
sg6
I13
sg7
I1
sg8
I14625
sg9
I1
sg10
I3
sg11
I0
sa(dp1549
g3
I4
sg4
I673
sg5
I11
sg6
I64
sg7
I171
sg8
I23658
sg9
I14
sg10
I13
sg11
I1
sa(dp1550
g3
I2
sg4
I205
sg5
I2
sg6
I15
sg7
I32
sg8
I6365
sg9
I15
sg10
I0
sg11
I0
sa(dp1551
g3
I0
sg4
I221
sg5
I9
sg6
I118
sg7
I46
sg8
I4073
sg9
I4
sg10
I0
sg11
I0
sa(dp1552
g3
I1
sg4
I31
sg5
I5
sg6
I154
sg7
I8
sg8
I9599
sg9
I8
sg10
I0
sg11
I0
sa(dp1553
g3
I3
sg4
I257
sg5
I8
sg6
I93
sg7
I54
sg8
I7173
sg9
I6
sg10
I9
sg11
I0
sa(dp1554
g3
I1
sg4
I38
sg5
I1
sg6
I-1
sg7
I13
sg8
I12771
sg9
I13
sg10
I0
sg11
I0
sa(dp1555
g3
I2
sg4
I90
sg5
I1
sg6
I6
sg7
I33
sg8
I6222
sg9
I14
sg10
I1
sg11
I0
sa(dp1556
g3
I0
sg4
I64
sg5
I2
sg6
I18
sg7
I24
sg8
I24570
sg9
I16
sg10
I0
sg11
I0
sa(dp1557
g3
I0
sg4
I0
sg5
I0
sg6
I0
sg7
I0
sg8
I8512
sg9
I1
sg10
I0
sg11
I0
sa(dp1558
g3
I0
sg4
I46
sg5
I6
sg6
I26
sg7
I6
sg8
I12501
sg9
I3
sg10
I0
sg11
I0
sa(dp1559
g3
I0
sg4
I0
sg5
I0
sg6
I0
sg7
I0
sg8
I7770
sg9
I5
sg10
I0
sg11
I0
sa(dp1560
g3
I5
sg4
I948
sg5
I56
sg6
I393
sg7
I214
sg8
I20842
sg9
I14
sg10
I0
sg11
I1
sa(dp1561
g3
I3
sg4
I451
sg5
I21
sg6
I269
sg7
I96
sg8
I11787
sg9
I9
sg10
I0
sg11
I1
sa(dp1562
g3
I0
sg4
I204
sg5
I5
sg6
I19
sg7
I60
sg8
I20331
sg9
I12
sg10
I0
sg11
I0
sa(dp1563
g3
I5
sg4
I425
sg5
I17
sg6
I107
sg7
I121
sg8
I9904
sg9
I16
sg10
I0
sg11
I0
sa(dp1564
g3
I0
sg4
I0
sg5
I0
sg6
I0
sg7
I0
sg8
I15216
sg9
I9
sg10
I0
sg11
I0
sa(dp1565
g3
I0
sg4
I121
sg5
I34
sg6
I372
sg7
I23
sg8
I14972
sg9
I14
sg10
I0
sg11
I1
sa(dp1566
g3
I7
sg4
I467
sg5
I5
sg6
I23
sg7
I122
sg8
I21801
sg9
I15
sg10
I0
sg11
I1
sa(dp1567
g3
I1
sg4
I123
sg5
I3
sg6
I40
sg7
I28
sg8
I21834
sg9
I4
sg10
I3
sg11
I0
sa(dp1568
g3
I1
sg4
I235
sg5
I16
sg6
I96
sg7
I72
sg8
I11587
sg9
I16
sg10
I18
sg11
I1
sa(dp1569
g3
I0
sg4
I5
sg5
I0
sg6
I0
sg7
I4
sg8
I9719
sg9
I3
sg10
I0
sg11
I0
sa(dp1570
g3
I0
sg4
I72
sg5
I4
sg6
I21
sg7
I30
sg8
I5967
sg9
I9
sg10
I5
sg11
I1
sa(dp1571
g3
I0
sg4
I52
sg5
I14
sg6
I192
sg7
I8
sg8
I16143
sg9
I17
sg10
I0
sg11
I2
sa(dp1572
g3
I0
sg4
I0
sg5
I0
sg6
I0
sg7
I0
sg8
I1032
sg9
I2
sg10
I0
sg11
I0
sa(dp1573
g3
I0
sg4
I56
sg5
I10
sg6
I56
sg7
I17
sg8
I11790
sg9
I9
sg10
I10
sg11
I0
sa(dp1574
g3
I10
sg4
I1236
sg5
I59
sg6
I367
sg7
I339
sg8
I22399
sg9
I16
sg10
I74
sg11
I0
sa(dp1575
g3
I0
sg4
I125
sg5
I1
sg6
I3
sg7
I29
sg8
I21688
sg9
I15
sg10
I0
sg11
I0
sa(dp1576
g3
I0
sg4
I0
sg5
I0
sg6
I0
sg7
I1
sg8
I21903
sg9
I1
sg10
I0
sg11
I0
sa(dp1577
g3
I0
sg4
I40
sg5
I19
sg6
I164
sg7
I7
sg8
I7008
sg9
I16
sg10
I28
sg11
I2
sa(dp1578
g3
I5
sg4
I659
sg5
I24
sg6
I177
sg7
I195
sg8
I7334
sg9
I13
sg10
I0
sg11
I1
sa(dp1579
g3
I0
sg4
I-7
sg5
I0
sg6
I0
sg7
I4
sg8
I9120
sg9
I4
sg10
I0
sg11
I0
sa(dp1580
g3
I1
sg4
I301
sg5
I18
sg6
I144
sg7
I83
sg8
I10738
sg9
I13
sg10
I24
sg11
I1
sa(dp1581
g3
I0
sg4
I0
sg5
I0
sg6
I0
sg7
I0
sg8
I13137
sg9
I7
sg10
I0
sg11
I0
sa(dp1582
g3
I0
sg4
I17
sg5
I1
sg6
I-2
sg7
I4
sg8
I2677
sg9
I1
sg10
I1
sg11
I0
sa(dp1583
g3
I1
sg4
I226
sg5
I11
sg6
I76
sg7
I83
sg8
I4168
sg9
I14
sg10
I18
sg11
I0
sa(dp1584
g3
I3
sg4
I218
sg5
I17
sg6
I177
sg7
I52
sg8
I23159
sg9
I8
sg10
I0
sg11
I2
sa(dp1585
g3
I0
sg4
I7
sg5
I3
sg6
I20
sg7
I3
sg8
I1833
sg9
I14
sg10
I3
sg11
I0
sa(dp1586
g3
I0
sg4
I3
sg5
I2
sg6
I17
sg7
I4
sg8
I9233
sg9
I2
sg10
I0
sg11
I0
sa(dp1587
g3
I0
sg4
I48
sg5
I0
sg6
I0
sg7
I15
sg8
I271
sg9
I2
sg10
I0
sg11
I0
sa(dp1588
g3
I7
sg4
I513
sg5
I20
sg6
I119
sg7
I129
sg8
I16557
sg9
I16
sg10
I0
sg11
I0
sa(dp1589
g3
I0
sg4
I24
sg5
I0
sg6
I0
sg7
I3
sg8
I10697
sg9
I1
sg10
I0
sg11
I0
sa(dp1590
g3
I0
sg4
I73
sg5
I2
sg6
I25
sg7
I16
sg8
I11707
sg9
I10
sg10
I3
sg11
I0
sa(dp1591
g3
I2
sg4
I317
sg5
I17
sg6
I88
sg7
I60
sg8
I6532
sg9
I10
sg10
I0
sg11
I0
sa(dp1592
g3
I7
sg4
I898
sg5
I23
sg6
I204
sg7
I222
sg8
I15819
sg9
I17
sg10
I27
sg11
I0
sa(dp1593
g3
I0
sg4
I0
sg5
I0
sg6
I0
sg7
I0
sg8
I6642
sg9
I3
sg10
I0
sg11
I0
sa(dp1594
g3
I3
sg4
I115
sg5
I12
sg6
I90
sg7
I35
sg8
I2292
sg9
I19
sg10
I0
sg11
I3
sa(dp1595
g3
I0
sg4
I315
sg5
I4
sg6
I29
sg7
I79
sg8
I5633
sg9
I14
sg10
I0
sg11
I1
sa(dp1596
g3
I0
sg4
I519
sg5
I21
sg6
I142
sg7
I114
sg8
I5257
sg9
I16
sg10
I0
sg11
I1
sa(dp1597
g3
I2
sg4
I221
sg5
I10
sg6
I103
sg7
I49
sg8
I20113
sg9
I16
sg10
I0
sg11
I0
sa(dp1598
g3
I2
sg4
I212
sg5
I13
sg6
I121
sg7
I43
sg8
I4923
sg9
I14
sg10
I0
sg11
I0
sa(dp1599
g3
I1
sg4
I98
sg5
I8
sg6
I49
sg7
I35
sg8
I15426
sg9
I6
sg10
I0
sg11
I1
sa(dp1600
g3
I0
sg4
I50
sg5
I2
sg6
I8
sg7
I11
sg8
I13597
sg9
I10
sg10
I0
sg11
I0
sa(dp1601
g3
I0
sg4
I402
sg5
I14
sg6
I204
sg7
I100
sg8
I23719
sg9
I8
sg10
I0
sg11
I3
sa(dp1602
g3
I0
sg4
I5
sg5
I0
sg6
I0
sg7
I1
sg8
I24217
sg9
I14
sg10
I0
sg11
I0
sa(dp1603
g3
I1
sg4
I184
sg5
I5
sg6
I33
sg7
I39
sg8
I5127
sg9
I8
sg10
I9
sg11
I0
sa(dp1604
g3
I6
sg4
I1313
sg5
I29
sg6
I298
sg7
I252
sg8
I10295
sg9
I15
sg10
I50
sg11
I1
sa(dp1605
g3
I1
sg4
I203
sg5
I1
sg6
I2
sg7
I36
sg8
I7174
sg9
I16
sg10
I0
sg11
I0
sa(dp1606
g3
I0
sg4
I186
sg5
I3
sg6
I16
sg7
I32
sg8
I17116
sg9
I8
sg10
I7
sg11
I0
sa(dp1607
g3
I0
sg4
I47
sg5
I19
sg6
I137
sg7
I10
sg8
I11503
sg9
I17
sg10
I0
sg11
I5
sa(dp1608
g3
I9
sg4
I1104
sg5
I34
sg6
I224
sg7
I233
sg8
I18540
sg9
I15
sg10
I55
sg11
I0
sa(dp1609
g3
I3
sg4
I567
sg5
I52
sg6
I365
sg7
I118
sg8
I2497
sg9
I16
sg10
I0
sg11
I5
sa(dp1610
g3
I0
sg4
I32
sg5
I0
sg6
I0
sg7
I8
sg8
I300
sg9
I7
sg10
I0
sg11
I0
sa(dp1611
g3
I2
sg4
I299
sg5
I12
sg6
I51
sg7
I81
sg8
I8218
sg9
I13
sg10
I14
sg11
I0
sa(dp1612
g3
I0
sg4
I0
sg5
I0
sg6
I0
sg7
I0
sg8
I12950
sg9
I3
sg10
I0
sg11
I0
sa(dp1613
g3
I0
sg4
I11
sg5
I3
sg6
I15
sg7
I5
sg8
I14842
sg9
I2
sg10
I0
sg11
I1
sa(dp1614
g3
I0
sg4
I38
sg5
I8
sg6
I69
sg7
I16
sg8
I7678
sg9
I9
sg10
I10
sg11
I0
sa(dp1615
g3
I3
sg4
I339
sg5
I8
sg6
I57
sg7
I73
sg8
I24585
sg9
I10
sg10
I0
sg11
I0
sa(dp1616
g3
I0
sg4
I15
sg5
I1
sg6
I7
sg7
I6
sg8
I21730
sg9
I10
sg10
I1
sg11
I0
sa(dp1617
g3
I0
sg4
I9
sg5
I2
sg6
I16
sg7
I2
sg8
I5090
sg9
I1
sg10
I3
sg11
I0
sa(dp1618
g3
I7
sg4
I873
sg5
I26
sg6
I232
sg7
I204
sg8
I4334
sg9
I16
sg10
I0
sg11
I0
sa(dp1619
g3
I8
sg4
I860
sg5
I45
sg6
I399
sg7
I244
sg8
I1465
sg9
I13
sg10
I66
sg11
I0
sa(dp1620
g3
I6
sg4
I765
sg5
I22
sg6
I173
sg7
I187
sg8
I7203
sg9
I9
sg10
I30
sg11
I1
sa(dp1621
g3
I1
sg4
I220
sg5
I9
sg6
I56
sg7
I63
sg8
I11075
sg9
I9
sg10
I13
sg11
I0
sa(dp1622
g3
I4
sg4
I365
sg5
I15
sg6
I216
sg7
I80
sg8
I8921
sg9
I14
sg10
I0
sg11
I2
sa(dp1623
g3
I7
sg4
I973
sg5
I26
sg6
I141
sg7
I250
sg8
I21063
sg9
I14
sg10
I35
sg11
I1
sa(dp1624
g3
I0
sg4
I40
sg5
I0
sg6
I0
sg7
I7
sg8
I324
sg9
I11
sg10
I0
sg11
I0
sa(dp1625
g3
I0
sg4
I0
sg5
I0
sg6
I0
sg7
I0
sg8
I16233
sg9
I3
sg10
I0
sg11
I0
sa(dp1626
g3
I3
sg4
I195
sg5
I39
sg6
I352
sg7
I83
sg8
I24653
sg9
I16
sg10
I0
sg11
I2
sa(dp1627
g3
I8
sg4
I857
sg5
I22
sg6
I219
sg7
I166
sg8
I7650
sg9
I16
sg10
I0
sg11
I1
sa(dp1628
g3
I3
sg4
I132
sg5
I1
sg6
I7
sg7
I22
sg8
I4280
sg9
I17
sg10
I0
sg11
I0
sa(dp1629
g3
I0
sg4
I0
sg5
I0
sg6
I0
sg7
I0
sg8
I1877
sg9
I1
sg10
I0
sg11
I0
sa(dp1630
g3
I0
sg4
I295
sg5
I10
sg6
I43
sg7
I60
sg8
I10915
sg9
I8
sg10
I11
sg11
I0
sa(dp1631
g3
I0
sg4
I15
sg5
I1
sg6
I6
sg7
I8
sg8
I7066
sg9
I6
sg10
I0
sg11
I0
sa(dp1632
g3
I1
sg4
I177
sg5
I16
sg6
I85
sg7
I54
sg8
I22211
sg9
I14
sg10
I0
sg11
I0
sa(dp1633
g3
I1
sg4
I729
sg5
I35
sg6
I231
sg7
I140
sg8
I24916
sg9
I15
sg10
I43
sg11
I0
sa(dp1634
g3
I6
sg4
I540
sg5
I11
sg6
I118
sg7
I138
sg8
I4885
sg9
I11
sg10
I0
sg11
I1
sa(dp1635
g3
I8
sg4
I1605
sg5
I41
sg6
I308
sg7
I331
sg8
I476
sg9
I16
sg10
I0
sg11
I2
sa(dp1636
g3
I2
sg4
I458
sg5
I32
sg6
I274
sg7
I111
sg8
I8926
sg9
I16
sg10
I0
sg11
I2
sa(dp1637
g3
I1
sg4
I44
sg5
I4
sg6
I32
sg7
I17
sg8
I9095
sg9
I14
sg10
I6
sg11
I0
sa(dp1638
g3
I0
sg4
I0
sg5
I0
sg6
I0
sg7
I0
sg8
I21062
sg9
I17
sg10
I0
sg11
I0
sa(dp1639
g3
I5
sg4
I546
sg5
I55
sg6
I548
sg7
I77
sg8
I11877
sg9
I11
sg10
I68
sg11
I4
sa(dp1640
g3
I2
sg4
I525
sg5
I22
sg6
I140
sg7
I147
sg8
I471
sg9
I14
sg10
I0
sg11
I0
sa(dp1641
g3
I1
sg4
I8
sg5
I0
sg6
I0
sg7
I4
sg8
I24686
sg9
I15
sg10
I0
sg11
I0
sa(dp1642
g3
I0
sg4
I0
sg5
I0
sg6
I0
sg7
I0
sg8
I8338
sg9
I2
sg10
I0
sg11
I0
sa(dp1643
g3
I0
sg4
I187
sg5
I3
sg6
I13
sg7
I41
sg8
I17429
sg9
I9
sg10
I0
sg11
I0
sa(dp1644
g3
I1
sg4
I175
sg5
I1
sg6
I5
sg7
I41
sg8
I13037
sg9
I11
sg10
I0
sg11
I0
sa(dp1645
g3
I0
sg4
I0
sg5
I0
sg6
I0
sg7
I0
sg8
I20413
sg9
I16
sg10
I0
sg11
I0
sa(dp1646
g3
I2
sg4
I399
sg5
I24
sg6
I111
sg7
I82
sg8
I20757
sg9
I10
sg10
I32
sg11
I0
sa(dp1647
g3
I0
sg4
I22
sg5
I4
sg6
I20
sg7
I12
sg8
I10440
sg9
I4
sg10
I0
sg11
I0
sa(dp1648
g3
I0
sg4
I178
sg5
I16
sg6
I98
sg7
I61
sg8
I15618
sg9
I14
sg10
I32
sg11
I0
sa(dp1649
g3
I0
sg4
I88
sg5
I0
sg6
I0
sg7
I32
sg8
I22885
sg9
I17
sg10
I0
sg11
I0
sa(dp1650
g3
I0
sg4
I0
sg5
I0
sg6
I0
sg7
I0
sg8
I11875
sg9
I4
sg10
I0
sg11
I0
sa(dp1651
g3
I3
sg4
I495
sg5
I17
sg6
I198
sg7
I133
sg8
I13769
sg9
I17
sg10
I0
sg11
I1
sa(dp1652
g3
I8
sg4
I677
sg5
I20
sg6
I158
sg7
I157
sg8
I1472
sg9
I15
sg10
I27
sg11
I0
sa(dp1653
g3
I3
sg4
I497
sg5
I25
sg6
I167
sg7
I104
sg8
I8346
sg9
I13
sg10
I0
sg11
I1
sa(dp1654
g3
I3
sg4
I391
sg5
I6
sg6
I44
sg7
I98
sg8
I952
sg9
I15
sg10
I0
sg11
I0
sa(dp1655
g3
I0
sg4
I0
sg5
I1
sg6
I12
sg7
I0
sg8
I21184
sg9
I7
sg10
I0
sg11
I0
sa(dp1656
g3
I0
sg4
I3
sg5
I3
sg6
I18
sg7
I1
sg8
I6521
sg9
I14
sg10
I5
sg11
I0
sa(dp1657
g3
I0
sg4
I0
sg5
I0
sg6
I0
sg7
I0
sg8
I20559
sg9
I1
sg10
I0
sg11
I0
sa(dp1658
g3
I0
sg4
I157
sg5
I4
sg6
I80
sg7
I36
sg8
I474
sg9
I15
sg10
I0
sg11
I1
sa(dp1659
g3
I0
sg4
I8
sg5
I2
sg6
I19
sg7
I5
sg8
I16926
sg9
I7
sg10
I0
sg11
I0
sa(dp1660
g3
I9
sg4
I1375
sg5
I62
sg6
I443
sg7
I302
sg8
I108
sg9
I20
sg10
I73
sg11
I1
sa(dp1661
g3
I0
sg4
I0
sg5
I0
sg6
I0
sg7
I1
sg8
I9510
sg9
I8
sg10
I0
sg11
I0
sa(dp1662
g3
I1
sg4
I261
sg5
I6
sg6
I59
sg7
I47
sg8
I4919
sg9
I14
sg10
I10
sg11
I0
sa(dp1663
g3
I0
sg4
I30
sg5
I15
sg6
I111
sg7
I8
sg8
I16789
sg9
I8
sg10
I0
sg11
I0
sa(dp1664
g3
I1
sg4
I209
sg5
I3
sg6
I2
sg7
I35
sg8
I8339
sg9
I16
sg10
I5
sg11
I0
sa(dp1665
g3
I0
sg4
I0
sg5
I0
sg6
I0
sg7
I0
sg8
I9338
sg9
I1
sg10
I0
sg11
I0
sa(dp1666
g3
I2
sg4
I233
sg5
I25
sg6
I198
sg7
I67
sg8
I1451
sg9
I14
sg10
I0
sg11
I0
sa(dp1667
g3
I2
sg4
I305
sg5
I5
sg6
I30
sg7
I76
sg8
I14504
sg9
I15
sg10
I0
sg11
I0
sa(dp1668
g3
I0
sg4
I23
sg5
I0
sg6
I0
sg7
I13
sg8
I11537
sg9
I13
sg10
I0
sg11
I0
sa(dp1669
g3
I0
sg4
I199
sg5
I16
sg6
I109
sg7
I75
sg8
I17976
sg9
I14
sg10
I0
sg11
I0
sa(dp1670
g3
I3
sg4
I432
sg5
I14
sg6
I77
sg7
I107
sg8
I4216
sg9
I16
sg10
I0
sg11
I0
sa(dp1671
g3
I0
sg4
I6
sg5
I1
sg6
I4
sg7
I3
sg8
I3372
sg9
I3
sg10
I3
sg11
I0
sa(dp1672
g3
I0
sg4
I68
sg5
I6
sg6
I62
sg7
I12
sg8
I21613
sg9
I7
sg10
I11
sg11
I0
sa(dp1673
g3
I0
sg4
I5
sg5
I0
sg6
I0
sg7
I3
sg8
I6626
sg9
I14
sg10
I0
sg11
I0
sa(dp1674
g3
I0
sg4
I42
sg5
I0
sg6
I0
sg7
I6
sg8
I24287
sg9
I1
sg10
I0
sg11
I0
sa(dp1675
g3
I0
sg4
I1
sg5
I0
sg6
I0
sg7
I1
sg8
I9588
sg9
I3
sg10
I0
sg11
I0
sa(dp1676
g3
I5
sg4
I579
sg5
I27
sg6
I373
sg7
I113
sg8
I20557
sg9
I14
sg10
I0
sg11
I2
sa(dp1677
g3
I0
sg4
I15
sg5
I3
sg6
I18
sg7
I10
sg8
I14469
sg9
I8
sg10
I0
sg11
I0
sa(dp1678
g3
I0
sg4
I40
sg5
I4
sg6
I24
sg7
I8
sg8
I20564
sg9
I9
sg10
I5
sg11
I0
sa(dp1679
g8
I15074
sa(dp1680
g3
I0
sg4
I205
sg5
I4
sg6
I9
sg7
I51
sg8
I4898
sg9
I17
sg10
I11
sg11
I0
sa(dp1681
g3
I1
sg4
I100
sg5
I0
sg6
I0
sg7
I22
sg8
I18919
sg9
I16
sg10
I0
sg11
I0
sa(dp1682
g3
I0
sg4
I0
sg5
I0
sg6
I0
sg7
I0
sg8
I21151
sg9
I6
sg10
I0
sg11
I0
sa(dp1683
g3
I0
sg4
I0
sg5
I0
sg6
I0
sg7
I0
sg8
I22685
sg9
I2
sg10
I0
sg11
I0
sa(dp1684
g3
I1
sg4
I220
sg5
I1
sg6
I-9
sg7
I41
sg8
I13120
sg9
I15
sg10
I0
sg11
I0
sa(dp1685
g3
I0
sg4
I0
sg5
I0
sg6
I0
sg7
I0
sg8
I8565
sg9
I4
sg10
I0
sg11
I0
sa(dp1686
g3
I1
sg4
I54
sg5
I5
sg6
I41
sg7
I14
sg8
I19108
sg9
I2
sg10
I0
sg11
I0
sa(dp1687
g3
I0
sg4
I-1
sg5
I0
sg6
I0
sg7
I5
sg8
I7915
sg9
I13
sg10
I0
sg11
I0
sa(dp1688
g3
I1
sg4
I86
sg5
I4
sg6
I75
sg7
I21
sg8
I14470
sg9
I7
sg10
I0
sg11
I1
sa(dp1689
g3
I0
sg4
I34
sg5
I1
sg6
I8
sg7
I13
sg8
I12974
sg9
I12
sg10
I0
sg11
I0
sa(dp1690
g3
I4
sg4
I562
sg5
I2
sg6
I26
sg7
I131
sg8
I13926
sg9
I14
sg10
I0
sg11
I0
sa(dp1691
g3
I0
sg4
I31
sg5
I4
sg6
I32
sg7
I11
sg8
I3647
sg9
I6
sg10
I4
sg11
I0
sa(dp1692
g3
I0
sg4
I394
sg5
I22
sg6
I224
sg7
I92
sg8
I22612
sg9
I18
sg10
I27
sg11
I0
sa(dp1693
g3
I0
sg4
I5
sg5
I1
sg6
I16
sg7
I3
sg8
I1521
sg9
I1
sg10
I1
sg11
I0
sa(dp1694
g3
I11
sg4
I1116
sg5
I23
sg6
I139
sg7
I307
sg8
I8
sg9
I16
sg10
I46
sg11
I0
sa(dp1695
g3
I2
sg4
I714
sg5
I22
sg6
I268
sg7
I204
sg8
I6228
sg9
I18
sg10
I0
sg11
I0
sa(dp1696
g3
I0
sg4
I0
sg5
I0
sg6
I0
sg7
I0
sg8
I19047
sg9
I3
sg10
I0
sg11
I0
sa(dp1697
g3
I9
sg4
I1282
sg5
I50
sg6
I377
sg7
I268
sg8
I20446
sg9
I16
sg10
I59
sg11
I1
sa(dp1698
g3
I0
sg4
I68
sg5
I20
sg6
I240
sg7
I16
sg8
I16195
sg9
I17
sg10
I0
sg11
I2
sa(dp1699
g3
I0
sg4
I705
sg5
I23
sg6
I190
sg7
I174
sg8
I10855
sg9
I14
sg10
I0
sg11
I2
sa(dp1700
g3
I0
sg4
I26
sg5
I2
sg6
I33
sg7
I8
sg8
I14988
sg9
I12
sg10
I0
sg11
I0
sa(dp1701
g3
I0
sg4
I10
sg5
I0
sg6
I0
sg7
I3
sg8
I24465
sg9
I11
sg10
I0
sg11
I0
sa(dp1702
g3
I1
sg4
I166
sg5
I6
sg6
I27
sg7
I39
sg8
I14533
sg9
I17
sg10
I0
sg11
I0
sa(dp1703
g3
I0
sg4
I0
sg5
I0
sg6
I0
sg7
I0
sg8
I9628
sg9
I3
sg10
I0
sg11
I0
sa(dp1704
g3
I5
sg4
I799
sg5
I24
sg6
I214
sg7
I191
sg8
I10118
sg9
I18
sg10
I34
sg11
I0
sa(dp1705
g3
I0
sg4
I0
sg5
I0
sg6
I0
sg7
I0
sg8
I13756
sg9
I14
sg10
I0
sg11
I0
sa(dp1706
g3
I3
sg4
I125
sg5
I1
sg6
I5
sg7
I46
sg8
I1885
sg9
I2
sg10
I0
sg11
I0
sa(dp1707
g3
I1
sg4
I297
sg5
I8
sg6
I91
sg7
I95
sg8
I5154
sg9
I11
sg10
I0
sg11
I0
sa(dp1708
g3
I1
sg4
I303
sg5
I4
sg6
I33
sg7
I62
sg8
I7920
sg9
I10
sg10
I0
sg11
I0
sa(dp1709
g3
I2
sg4
I428
sg5
I16
sg6
I148
sg7
I124
sg8
I1336
sg9
I14
sg10
I0
sg11
I1
sa(dp1710
g3
I0
sg4
I0
sg5
I12
sg6
I87
sg7
I0
sg8
I17149
sg9
I16
sg10
I21
sg11
I0
sa(dp1711
g3
I7
sg4
I721
sg5
I18
sg6
I130
sg7
I217
sg8
I23980
sg9
I16
sg10
I37
sg11
I0
sa(dp1712
g3
I0
sg4
I0
sg5
I0
sg6
I0
sg7
I0
sg8
I24218
sg9
I2
sg10
I0
sg11
I0
sa(dp1713
g3
I1
sg4
I272
sg5
I8
sg6
I84
sg7
I59
sg8
I17414
sg9
I10
sg10
I0
sg11
I1
sa(dp1714
g3
I0
sg4
I0
sg5
I0
sg6
I0
sg7
I1
sg8
I16063
sg9
I13
sg10
I0
sg11
I0
sa(dp1715
g3
I0
sg4
I0
sg5
I0
sg6
I0
sg7
I0
sg8
I6806
sg9
I4
sg10
I0
sg11
I0
sa(dp1716
g3
I0
sg4
I0
sg5
I0
sg6
I0
sg7
I0
sg8
I15531
sg9
I4
sg10
I0
sg11
I0
sa(dp1717
g3
I0
sg4
I113
sg5
I0
sg6
I0
sg7
I24
sg8
I4418
sg9
I11
sg10
I0
sg11
I0
sa(dp1718
g3
I0
sg4
I163
sg5
I41
sg6
I325
sg7
I51
sg8
I21815
sg9
I16
sg10
I0
sg11
I2
sa(dp1719
g3
I0
sg4
I20
sg5
I0
sg6
I0
sg7
I5
sg8
I21248
sg9
I2
sg10
I0
sg11
I0
sa(dp1720
g3
I0
sg4
I0
sg5
I0
sg6
I0
sg7
I0
sg8
I10167
sg9
I1
sg10
I0
sg11
I0
sa(dp1721
g3
I0
sg4
I10
sg5
I2
sg6
I10
sg7
I5
sg8
I22792
sg9
I9
sg10
I0
sg11
I0
sa(dp1722
g3
I0
sg4
I90
sg5
I2
sg6
I22
sg7
I29
sg8
I15692
sg9
I9
sg10
I0
sg11
I0
sa(dp1723
g3
I1
sg4
I30
sg5
I1
sg6
I2
sg7
I6
sg8
I9271
sg9
I6
sg10
I0
sg11
I0
sa(dp1724
g3
I4
sg4
I393
sg5
I49
sg6
I518
sg7
I111
sg8
I23923
sg9
I17
sg10
I0
sg11
I1
sa(dp1725
g3
I4
sg4
I513
sg5
I14
sg6
I182
sg7
I100
sg8
I13584
sg9
I15
sg10
I0
sg11
I0
sa(dp1726
g3
I0
sg4
I0
sg5
I0
sg6
I0
sg7
I0
sg8
I13896
sg9
I2
sg10
I0
sg11
I0
sa(dp1727
g3
I0
sg4
I3
sg5
I1
sg6
I6
sg7
I3
sg8
I2749
sg9
I1
sg10
I0
sg11
I0
sa(dp1728
g3
I0
sg4
I11
sg5
I1
sg6
I5
sg7
I3
sg8
I24586
sg9
I15
sg10
I0
sg11
I0
sa(dp1729
g3
I4
sg4
I700
sg5
I29
sg6
I295
sg7
I162
sg8
I23345
sg9
I17
sg10
I38
sg11
I0
sa(dp1730
g3
I0
sg4
I97
sg5
I8
sg6
I109
sg7
I32
sg8
I345
sg9
I12
sg10
I0
sg11
I0
sa(dp1731
g3
I1
sg4
I620
sg5
I20
sg6
I204
sg7
I123
sg8
I22004
sg9
I15
sg10
I0
sg11
I1
sa(dp1732
g3
I3
sg4
I321
sg5
I4
sg6
I32
sg7
I65
sg8
I15805
sg9
I16
sg10
I0
sg11
I0
sa(dp1733
g3
I3
sg4
I276
sg5
I10
sg6
I45
sg7
I78
sg8
I12933
sg9
I12
sg10
I14
sg11
I0
sa(dp1734
g3
I2
sg4
I158
sg5
I16
sg6
I142
sg7
I48
sg8
I11344
sg9
I16
sg10
I21
sg11
I0
sa(dp1735
g3
I0
sg4
I80
sg5
I2
sg6
I16
sg7
I18
sg8
I15914
sg9
I2
sg10
I0
sg11
I0
sa(dp1736
g3
I0
sg4
I36
sg5
I1
sg6
I17
sg7
I7
sg8
I3274
sg9
I3
sg10
I0
sg11
I0
sa(dp1737
g3
I11
sg4
I1282
sg5
I52
sg6
I522
sg7
I314
sg8
I6728
sg9
I16
sg10
I74
sg11
I1
sa(dp1738
g3
I0
sg4
I88
sg5
I2
sg6
I10
sg7
I21
sg8
I3270
sg9
I15
sg10
I0
sg11
I0
sa(dp1739
g3
I1
sg4
I100
sg5
I3
sg6
I9
sg7
I25
sg8
I7163
sg9
I10
sg10
I0
sg11
I1
sa(dp1740
g3
I0
sg4
I385
sg5
I17
sg6
I142
sg7
I103
sg8
I24180
sg9
I15
sg10
I0
sg11
I0
sa(dp1741
g3
I0
sg4
I0
sg5
I0
sg6
I0
sg7
I0
sg8
I16347
sg9
I1
sg10
I0
sg11
I0
sa(dp1742
g3
I0
sg4
I538
sg5
I27
sg6
I135
sg7
I113
sg8
I14897
sg9
I11
sg10
I41
sg11
I0
sa(dp1743
g3
I0
sg4
I0
sg5
I0
sg6
I0
sg7
I0
sg8
I25016
sg9
I11
sg10
I0
sg11
I0
sa(dp1744
g3
I0
sg4
I24
sg5
I2
sg6
I15
sg7
I7
sg8
I3346
sg9
I2
sg10
I0
sg11
I0
sa(dp1745
g3
I0
sg4
I56
sg5
I0
sg6
I0
sg7
I16
sg8
I19152
sg9
I18
sg10
I0
sg11
I0
sa(dp1746
g3
I0
sg4
I0
sg5
I0
sg6
I0
sg7
I0
sg8
I823
sg9
I6
sg10
I0
sg11
I0
sa(dp1747
g3
I0
sg4
I2
sg5
I1
sg6
I4
sg7
I1
sg8
I21339
sg9
I2
sg10
I0
sg11
I0
sa(dp1748
g3
I0
sg4
I0
sg5
I0
sg6
I0
sg7
I0
sg8
I23978
sg9
I6
sg10
I0
sg11
I0
sa(dp1749
g3
I0
sg4
I24
sg5
I4
sg6
I16
sg7
I8
sg8
I18301
sg9
I9
sg10
I0
sg11
I0
sa(dp1750
g3
I0
sg4
I37
sg5
I0
sg6
I0
sg7
I9
sg8
I1816
sg9
I16
sg10
I0
sg11
I0
sa(dp1751
g3
I4
sg4
I259
sg5
I4
sg6
I58
sg7
I58
sg8
I4066
sg9
I11
sg10
I5
sg11
I2
sa(dp1752
g3
I0
sg4
I60
sg5
I2
sg6
I11
sg7
I17
sg8
I24990
sg9
I6
sg10
I3
sg11
I0
sa(dp1753
g3
I11
sg4
I1454
sg5
I49
sg6
I472
sg7
I319
sg8
I14151
sg9
I16
sg10
I70
sg11
I1
sa(dp1754
g3
I0
sg4
I38
sg5
I0
sg6
I0
sg7
I11
sg8
I8143
sg9
I9
sg10
I0
sg11
I0
sa(dp1755
g3
I0
sg4
I10
sg5
I2
sg6
I33
sg7
I2
sg8
I19417
sg9
I3
sg10
I0
sg11
I0
sa(dp1756
g3
I0
sg4
I0
sg5
I0
sg6
I0
sg7
I0
sg8
I1698
sg9
I1
sg10
I0
sg11
I0
sa(dp1757
g3
I0
sg4
I9
sg5
I0
sg6
I0
sg7
I3
sg8
I24591
sg9
I3
sg10
I0
sg11
I0
sa(dp1758
g3
I1
sg4
I48
sg5
I3
sg6
I10
sg7
I13
sg8
I12983
sg9
I16
sg10
I0
sg11
I0
sa(dp1759
g3
I18
sg4
I1373
sg5
I21
sg6
I199
sg7
I275
sg8
I24636
sg9
I19
sg10
I0
sg11
I0
sa(dp1760
g3
I0
sg4
I117
sg5
I6
sg6
I57
sg7
I35
sg8
I8367
sg9
I10
sg10
I0
sg11
I0
sa(dp1761
g3
I2
sg4
I682
sg5
I29
sg6
I226
sg7
I172
sg8
I1545
sg9
I13
sg10
I38
sg11
I1
sa(dp1762
g3
I0
sg4
I3
sg5
I0
sg6
I0
sg7
I2
sg8
I4470
sg9
I11
sg10
I0
sg11
I0
sa(dp1763
g3
I5
sg4
I545
sg5
I48
sg6
I496
sg7
I126
sg8
I6398
sg9
I15
sg10
I0
sg11
I3
sa(dp1764
g3
I0
sg4
I33
sg5
I3
sg6
I22
sg7
I8
sg8
I17088
sg9
I1
sg10
I0
sg11
I0
sa(dp1765
g3
I0
sg4
I3
sg5
I0
sg6
I0
sg7
I1
sg8
I921
sg9
I4
sg10
I0
sg11
I0
sa(dp1766
g3
I13
sg4
I1128
sg5
I22
sg6
I169
sg7
I284
sg8
I14741
sg9
I16
sg10
I36
sg11
I0
sa(dp1767
g3
I0
sg4
I250
sg5
I9
sg6
I70
sg7
I73
sg8
I21826
sg9
I13
sg10
I0
sg11
I0
sa(dp1768
g3
I5
sg4
I369
sg5
I12
sg6
I176
sg7
I99
sg8
I20340
sg9
I14
sg10
I0
sg11
I3
sa(dp1769
g3
I0
sg4
I17
sg5
I0
sg6
I0
sg7
I4
sg8
I23404
sg9
I6
sg10
I0
sg11
I0
sa(dp1770
g3
I2
sg4
I86
sg5
I1
sg6
I-4
sg7
I29
sg8
I11425
sg9
I6
sg10
I1
sg11
I0
sa(dp1771
g3
I0
sg4
I211
sg5
I22
sg6
I245
sg7
I51
sg8
I16114
sg9
I18
sg10
I0
sg11
I1
sa(dp1772
g3
I10
sg4
I1129
sg5
I27
sg6
I259
sg7
I233
sg8
I5655
sg9
I16
sg10
I33
sg11
I0
sa(dp1773
g3
I0
sg4
I145
sg5
I13
sg6
I100
sg7
I47
sg8
I23772
sg9
I13
sg10
I19
sg11
I0
sa(dp1774
g3
I1
sg4
I79
sg5
I3
sg6
I37
sg7
I19
sg8
I17164
sg9
I17
sg10
I0
sg11
I0
sa(dp1775
g3
I0
sg4
I0
sg5
I0
sg6
I0
sg7
I0
sg8
I18506
sg9
I16
sg10
I0
sg11
I0
sa(dp1776
g3
I0
sg4
I0
sg5
I2
sg6
I-3
sg7
I0
sg8
I18013
sg9
I1
sg10
I0
sg11
I0
sa(dp1777
g3
I0
sg4
I22
sg5
I0
sg6
I0
sg7
I7
sg8
I17355
sg9
I11
sg10
I0
sg11
I0
sa(dp1778
g3
I0
sg4
I42
sg5
I4
sg6
I65
sg7
I14
sg8
I20577
sg9
I7
sg10
I0
sg11
I0
sa(dp1779
g3
I0
sg4
I6
sg5
I0
sg6
I0
sg7
I2
sg8
I24039
sg9
I12
sg10
I0
sg11
I0
sa(dp1780
g3
I15
sg4
I1527
sg5
I25
sg6
I179
sg7
I312
sg8
I473
sg9
I17
sg10
I34
sg11
I0
sa(dp1781
g3
I0
sg4
I0
sg5
I0
sg6
I0
sg7
I0
sg8
I4001
sg9
I1
sg10
I0
sg11
I0
sa(dp1782
g3
I0
sg4
I72
sg5
I5
sg6
I47
sg7
I16
sg8
I1862
sg9
I12
sg10
I10
sg11
I0
sa(dp1783
g3
I0
sg4
I0
sg5
I0
sg6
I0
sg7
I0
sg8
I21852
sg9
I1
sg10
I0
sg11
I0
sa(dp1784
g3
I0
sg4
I56
sg5
I7
sg6
I60
sg7
I15
sg8
I394
sg9
I9
sg10
I0
sg11
I0
sa(dp1785
g3
I0
sg4
I303
sg5
I30
sg6
I183
sg7
I86
sg8
I13192
sg9
I16
sg10
I39
sg11
I0
sa(dp1786
g3
I2
sg4
I42
sg5
I4
sg6
I24
sg7
I8
sg8
I12852
sg9
I17
sg10
I0
sg11
I1
sa(dp1787
g3
I0
sg4
I74
sg5
I0
sg6
I0
sg7
I16
sg8
I17403
sg9
I2
sg10
I0
sg11
I0
sa(dp1788
g3
I2
sg4
I327
sg5
I6
sg6
I83
sg7
I78
sg8
I7144
sg9
I10
sg10
I8
sg11
I0
sa(dp1789
g3
I2
sg4
I179
sg5
I24
sg6
I252
sg7
I37
sg8
I6329
sg9
I11
sg10
I28
sg11
I3
sa(dp1790
g3
I0
sg4
I41
sg5
I0
sg6
I0
sg7
I14
sg8
I15927
sg9
I5
sg10
I0
sg11
I0
sa(dp1791
g3
I4
sg4
I765
sg5
I16
sg6
I148
sg7
I179
sg8
I14229
sg9
I12
sg10
I26
sg11
I1
sa(dp1792
g3
I0
sg4
I3
sg5
I0
sg6
I0
sg7
I1
sg8
I14472
sg9
I3
sg10
I0
sg11
I0
sa(dp1793
g3
I0
sg4
I28
sg5
I3
sg6
I5
sg7
I21
sg8
I18648
sg9
I12
sg10
I0
sg11
I0
sa(dp1794
g3
I2
sg4
I260
sg5
I13
sg6
I81
sg7
I61
sg8
I12290
sg9
I14
sg10
I0
sg11
I0
sa(dp1795
g3
I0
sg4
I0
sg5
I0
sg6
I0
sg7
I0
sg8
I2514
sg9
I5
sg10
I0
sg11
I0
sa(dp1796
g3
I1
sg4
I71
sg5
I2
sg6
I15
sg7
I21
sg8
I245
sg9
I1
sg10
I0
sg11
I0
sa(dp1797
g3
I2
sg4
I527
sg5
I17
sg6
I208
sg7
I122
sg8
I10524
sg9
I18
sg10
I27
sg11
I0
sa(dp1798
g3
I2
sg4
I100
sg5
I2
sg6
I-4
sg7
I26
sg8
I16782
sg9
I13
sg10
I0
sg11
I0
sa(dp1799
g3
I2
sg4
I102
sg5
I9
sg6
I210
sg7
I33
sg8
I18391
sg9
I9
sg10
I0
sg11
I1
sa(dp1800
g3
I0
sg4
I0
sg5
I1
sg6
I4
sg7
I0
sg8
I17730
sg9
I1
sg10
I1
sg11
I0
sa(dp1801
g3
I2
sg4
I749
sg5
I25
sg6
I216
sg7
I176
sg8
I17147
sg9
I16
sg10
I0
sg11
I1
sa(dp1802
g3
I1
sg4
I231
sg5
I18
sg6
I136
sg7
I53
sg8
I2330
sg9
I11
sg10
I32
sg11
I1
sa(dp1803
g3
I0
sg4
I139
sg5
I5
sg6
I58
sg7
I31
sg8
I16285
sg9
I14
sg10
I0
sg11
I1
sa(dp1804
g3
I0
sg4
I0
sg5
I0
sg6
I0
sg7
I0
sg8
I948
sg9
I4
sg10
I0
sg11
I0
sa(dp1805
g3
I2
sg4
I361
sg5
I4
sg6
I16
sg7
I79
sg8
I21000
sg9
I14
sg10
I7
sg11
I0
sa(dp1806
g3
I0
sg4
I0
sg5
I0
sg6
I0
sg7
I0
sg8
I22090
sg9
I3
sg10
I0
sg11
I0
sa(dp1807
g3
I0
sg4
I29
sg5
I2
sg6
I22
sg7
I7
sg8
I21077
sg9
I16
sg10
I3
sg11
I0
sa(dp1808
g3
I0
sg4
I5
sg5
I5
sg6
I44
sg7
I1
sg8
I3227
sg9
I13
sg10
I8
sg11
I0
sa(dp1809
g3
I2
sg4
I207
sg5
I5
sg6
I26
sg7
I56
sg8
I14223
sg9
I3
sg10
I0
sg11
I1
sa(dp1810
g3
I1
sg4
I91
sg5
I15
sg6
I166
sg7
I16
sg8
I14435
sg9
I16
sg10
I20
sg11
I1
sa(dp1811
g3
I0
sg4
I104
sg5
I4
sg6
I8
sg7
I20
sg8
I22656
sg9
I14
sg10
I5
sg11
I0
sa(dp1812
g3
I2
sg4
I505
sg5
I12
sg6
I125
sg7
I126
sg8
I18367
sg9
I14
sg10
I0
sg11
I0
sa(dp1813
g3
I0
sg4
I124
sg5
I21
sg6
I197
sg7
I31
sg8
I9008
sg9
I10
sg10
I0
sg11
I1
sa(dp1814
g3
I0
sg4
I0
sg5
I0
sg6
I0
sg7
I0
sg8
I22137
sg9
I12
sg10
I0
sg11
I0
sa(dp1815
g8
I20793
sa(dp1816
g3
I7
sg4
I321
sg5
I26
sg6
I210
sg7
I121
sg8
I4906
sg9
I16
sg10
I35
sg11
I2
sa(dp1817
g3
I1
sg4
I54
sg5
I1
sg6
I24
sg7
I16
sg8
I24308
sg9
I15
sg10
I0
sg11
I0
sa(dp1818
g3
I0
sg4
I0
sg5
I1
sg6
I11
sg7
I0
sg8
I13703
sg9
I9
sg10
I1
sg11
I0
sa(dp1819
g3
I0
sg4
I28
sg5
I2
sg6
I20
sg7
I10
sg8
I2352
sg9
I13
sg10
I0
sg11
I0
sa(dp1820
g3
I0
sg4
I8
sg5
I0
sg6
I0
sg7
I3
sg8
I23531
sg9
I12
sg10
I0
sg11
I0
sa(dp1821
g3
I0
sg4
I0
sg5
I0
sg6
I0
sg7
I0
sg8
I17715
sg9
I7
sg10
I0
sg11
I0
sa(dp1822
g3
I0
sg4
I138
sg5
I8
sg6
I38
sg7
I35
sg8
I7255
sg9
I9
sg10
I0
sg11
I2
sa(dp1823
g3
I3
sg4
I390
sg5
I75
sg6
I874
sg7
I119
sg8
I12331
sg9
I16
sg10
I95
sg11
I3
sa(dp1824
g3
I2
sg4
I215
sg5
I3
sg6
I20
sg7
I50
sg8
I24021
sg9
I14
sg10
I0
sg11
I0
sa(dp1825
g3
I0
sg4
I0
sg5
I0
sg6
I0
sg7
I0
sg8
I3876
sg9
I2
sg10
I0
sg11
I0
sa(dp1826
g3
I4
sg4
I179
sg5
I0
sg6
I0
sg7
I67
sg8
I15766
sg9
I11
sg10
I0
sg11
I0
sa(dp1827
g3
I10
sg4
I1300
sg5
I44
sg6
I288
sg7
I262
sg8
I11208
sg9
I16
sg10
I63
sg11
I1
sa(dp1828
g3
I0
sg4
I5
sg5
I5
sg6
I31
sg7
I1
sg8
I6459
sg9
I5
sg10
I0
sg11
I0
sa(dp1829
g3
I0
sg4
I32
sg5
I4
sg6
I39
sg7
I14
sg8
I6562
sg9
I3
sg10
I4
sg11
I0
sa(dp1830
g3
I7
sg4
I1159
sg5
I21
sg6
I159
sg7
I276
sg8
I7668
sg9
I12
sg10
I29
sg11
I0
sa(dp1831
g3
I1
sg4
I185
sg5
I19
sg6
I190
sg7
I66
sg8
I20338
sg9
I8
sg10
I27
sg11
I0
sa(dp1832
g3
I0
sg4
I0
sg5
I0
sg6
I0
sg7
I0
sg8
I23065
sg9
I12
sg10
I0
sg11
I0
sa(dp1833
g3
I7
sg4
I679
sg5
I33
sg6
I213
sg7
I196
sg8
I17270
sg9
I13
sg10
I0
sg11
I0
sa(dp1834
g3
I1
sg4
I201
sg5
I13
sg6
I87
sg7
I62
sg8
I23390
sg9
I10
sg10
I0
sg11
I0
sa(dp1835
g3
I0
sg4
I0
sg5
I9
sg6
I126
sg7
I0
sg8
I11333
sg9
I14
sg10
I13
sg11
I2
sa(dp1836
g3
I2
sg4
I244
sg5
I15
sg6
I97
sg7
I76
sg8
I8715
sg9
I12
sg10
I0
sg11
I0
sa(dp1837
g3
I0
sg4
I70
sg5
I8
sg6
I81
sg7
I27
sg8
I3609
sg9
I18
sg10
I0
sg11
I0
sa(dp1838
g3
I2
sg4
I123
sg5
I0
sg6
I0
sg7
I48
sg8
I9722
sg9
I7
sg10
I0
sg11
I0
sa(dp1839
g3
I1
sg4
I152
sg5
I14
sg6
I112
sg7
I39
sg8
I4285
sg9
I13
sg10
I16
sg11
I0
sa(dp1840
g3
I0
sg4
I0
sg5
I0
sg6
I0
sg7
I0
sg8
I1457
sg9
I8
sg10
I0
sg11
I0
sa(dp1841
g3
I1
sg4
I83
sg5
I5
sg6
I30
sg7
I16
sg8
I15467
sg9
I17
sg10
I0
sg11
I0
sa(dp1842
g3
I0
sg4
I0
sg5
I0
sg6
I0
sg7
I0
sg8
I4139
sg9
I3
sg10
I0
sg11
I0
sa(dp1843
g3
I0
sg4
I88
sg5
I14
sg6
I72
sg7
I24
sg8
I23932
sg9
I10
sg10
I18
sg11
I1
sa(dp1844
g3
I0
sg4
I0
sg5
I0
sg6
I0
sg7
I0
sg8
I7435
sg9
I5
sg10
I0
sg11
I0
sa(dp1845
g3
I1
sg4
I252
sg5
I17
sg6
I151
sg7
I52
sg8
I22104
sg9
I12
sg10
I23
sg11
I1
sa(dp1846
g3
I5
sg4
I622
sg5
I7
sg6
I48
sg7
I165
sg8
I2474
sg9
I14
sg10
I10
sg11
I0
sa(dp1847
g3
I1
sg4
I408
sg5
I14
sg6
I105
sg7
I94
sg8
I8368
sg9
I14
sg10
I0
sg11
I2
sa(dp1848
g3
I0
sg4
I0
sg5
I0
sg6
I0
sg7
I0
sg8
I14817
sg9
I1
sg10
I0
sg11
I0
sa(dp1849
g3
I5
sg4
I653
sg5
I19
sg6
I114
sg7
I199
sg8
I11282
sg9
I15
sg10
I29
sg11
I0
sa(dp1850
g3
I4
sg4
I729
sg5
I22
sg6
I179
sg7
I213
sg8
I9665
sg9
I13
sg10
I27
sg11
I0
sa(dp1851
g3
I15
sg4
I1756
sg5
I33
sg6
I361
sg7
I344
sg8
I6375
sg9
I16
sg10
I40
sg11
I1
sa(dp1852
g3
I0
sg4
I83
sg5
I1
sg6
I5
sg7
I13
sg8
I955
sg9
I1
sg10
I1
sg11
I0
sa(dp1853
g3
I6
sg4
I874
sg5
I20
sg6
I169
sg7
I219
sg8
I24688
sg9
I17
sg10
I0
sg11
I0
sa(dp1854
g3
I0
sg4
I16
sg5
I2
sg6
I25
sg7
I4
sg8
I744
sg9
I11
sg10
I0
sg11
I0
sa(dp1855
g3
I0
sg4
I-11
sg5
I0
sg6
I0
sg7
I1
sg8
I6244
sg9
I15
sg10
I0
sg11
I0
sa(dp1856
g3
I0
sg4
I0
sg5
I0
sg6
I0
sg7
I0
sg8
I22665
sg9
I4
sg10
I0
sg11
I0
sa(dp1857
g3
I0
sg4
I38
sg5
I1
sg6
I-3
sg7
I12
sg8
I23781
sg9
I12
sg10
I4
sg11
I0
sa(dp1858
g3
I1
sg4
I160
sg5
I2
sg6
I8
sg7
I31
sg8
I5219
sg9
I14
sg10
I0
sg11
I0
sa(dp1859
g3
I1
sg4
I75
sg5
I8
sg6
I107
sg7
I16
sg8
I18299
sg9
I15
sg10
I10
sg11
I0
sa(dp1860
g8
I22761
sa(dp1861
g3
I0
sg4
I17
sg5
I4
sg6
I20
sg7
I8
sg8
I22447
sg9
I6
sg10
I8
sg11
I0
sa(dp1862
g3
I3
sg4
I201
sg5
I1
sg6
I9
sg7
I36
sg8
I24045
sg9
I13
sg10
I0
sg11
I0
sa(dp1863
g3
I2
sg4
I131
sg5
I5
sg6
I28
sg7
I38
sg8
I16959
sg9
I7
sg10
I0
sg11
I0
sa(dp1864
g3
I0
sg4
I4
sg5
I2
sg6
I28
sg7
I2
sg8
I15682
sg9
I4
sg10
I0
sg11
I0
sa(dp1865
g3
I0
sg4
I39
sg5
I0
sg6
I0
sg7
I10
sg8
I24388
sg9
I14
sg10
I0
sg11
I0
sa(dp1866
g8
I6669
sa(dp1867
g3
I0
sg4
I0
sg5
I0
sg6
I0
sg7
I0
sg8
I716
sg9
I5
sg10
I0
sg11
I0
sa(dp1868
g3
I0
sg4
I26
sg5
I0
sg6
I0
sg7
I10
sg8
I998
sg9
I3
sg10
I0
sg11
I0
sa(dp1869
g3
I0
sg4
I0
sg5
I0
sg6
I0
sg7
I0
sg8
I15343
sg9
I4
sg10
I0
sg11
I0
sa(dp1870
g3
I5
sg4
I321
sg5
I12
sg6
I83
sg7
I111
sg8
I16176
sg9
I13
sg10
I0
sg11
I0
sa(dp1871
g3
I7
sg4
I819
sg5
I17
sg6
I109
sg7
I197
sg8
I11635
sg9
I8
sg10
I26
sg11
I0
sa(dp1872
g3
I0
sg4
I32
sg5
I5
sg6
I42
sg7
I9
sg8
I17187
sg9
I10
sg10
I0
sg11
I0
sa(dp1873
g3
I0
sg4
I43
sg5
I0
sg6
I0
sg7
I13
sg8
I11264
sg9
I10
sg10
I0
sg11
I0
sa(dp1874
g3
I4
sg4
I292
sg5
I8
sg6
I114
sg7
I68
sg8
I21742
sg9
I13
sg10
I10
sg11
I0
sa(dp1875
g3
I0
sg4
I0
sg5
I0
sg6
I0
sg7
I0
sg8
I7689
sg9
I1
sg10
I0
sg11
I0
sa(dp1876
g3
I0
sg4
I0
sg5
I2
sg6
I14
sg7
I0
sg8
I1509
sg9
I9
sg10
I2
sg11
I0
sa(dp1877
g3
I8
sg4
I1238
sg5
I63
sg6
I477
sg7
I316
sg8
I7164
sg9
I16
sg10
I76
sg11
I4
sa(dp1878
g3
I1
sg4
I152
sg5
I2
sg6
I14
sg7
I22
sg8
I8805
sg9
I11
sg10
I0
sg11
I0
sa(dp1879
g3
I1
sg4
I311
sg5
I11
sg6
I55
sg7
I78
sg8
I7560
sg9
I14
sg10
I0
sg11
I1
sa(dp1880
g3
I1
sg4
I82
sg5
I1
sg6
I-2
sg7
I8
sg8
I2676
sg9
I9
sg10
I1
sg11
I0
sa(dp1881
g3
I0
sg4
I0
sg5
I0
sg6
I0
sg7
I0
sg8
I8887
sg9
I1
sg10
I0
sg11
I0
sa(dp1882
g3
I8
sg4
I607
sg5
I9
sg6
I87
sg7
I148
sg8
I4860
sg9
I16
sg10
I14
sg11
I0
sa(dp1883
g3
I5
sg4
I1133
sg5
I28
sg6
I180
sg7
I241
sg8
I11643
sg9
I15
sg10
I41
sg11
I1
sa(dp1884
g3
I0
sg4
I38
sg5
I1
sg6
I8
sg7
I16
sg8
I15650
sg9
I5
sg10
I0
sg11
I0
sa(dp1885
g3
I0
sg4
I8
sg5
I0
sg6
I0
sg7
I3
sg8
I19114
sg9
I7
sg10
I0
sg11
I0
sa(dp1886
g3
I0
sg4
I112
sg5
I13
sg6
I98
sg7
I37
sg8
I24712
sg9
I3
sg10
I0
sg11
I1
sa(dp1887
g3
I5
sg4
I740
sg5
I63
sg6
I587
sg7
I182
sg8
I1603
sg9
I17
sg10
I82
sg11
I3
sa(dp1888
g3
I0
sg4
I57
sg5
I1
sg6
I4
sg7
I12
sg8
I4521
sg9
I5
sg10
I3
sg11
I0
sa(dp1889
g3
I6
sg4
I1116
sg5
I16
sg6
I118
sg7
I226
sg8
I22037
sg9
I17
sg10
I0
sg11
I1
sa(dp1890
g3
I1
sg4
I265
sg5
I10
sg6
I62
sg7
I90
sg8
I23329
sg9
I13
sg10
I15
sg11
I0
sa(dp1891
g3
I0
sg4
I9
sg5
I3
sg6
I38
sg7
I9
sg8
I9169
sg9
I4
sg10
I4
sg11
I0
sa(dp1892
g3
I18
sg4
I1923
sg5
I59
sg6
I424
sg7
I423
sg8
I5605
sg9
I18
sg10
I0
sg11
I2
sa(dp1893
g3
I0
sg4
I27
sg5
I2
sg6
I20
sg7
I10
sg8
I23924
sg9
I4
sg10
I2
sg11
I0
sa(dp1894
g3
I2
sg4
I439
sg5
I23
sg6
I224
sg7
I112
sg8
I24665
sg9
I9
sg10
I0
sg11
I2
sa(dp1895
g3
I2
sg4
I740
sg5
I36
sg6
I279
sg7
I182
sg8
I24845
sg9
I12
sg10
I46
sg11
I1
sa(dp1896
g3
I3
sg4
I652
sg5
I39
sg6
I371
sg7
I118
sg8
I6367
sg9
I15
sg10
I57
sg11
I1
sa(dp1897
g3
I0
sg4
I72
sg5
I10
sg6
I69
sg7
I19
sg8
I19372
sg9
I9
sg10
I12
sg11
I0
sa(dp1898
g3
I5
sg4
I171
sg5
I13
sg6
I144
sg7
I48
sg8
I6563
sg9
I6
sg10
I0
sg11
I0
sa(dp1899
g3
I4
sg4
I410
sg5
I15
sg6
I136
sg7
I100
sg8
I8640
sg9
I17
sg10
I0
sg11
I0
sa(dp1900
g3
I0
sg4
I3
sg5
I0
sg6
I0
sg7
I1
sg8
I24947
sg9
I3
sg10
I0
sg11
I0
sa(dp1901
g3
I0
sg4
I28
sg5
I0
sg6
I0
sg7
I7
sg8
I24531
sg9
I16
sg10
I0
sg11
I0
sa(dp1902
g3
I0
sg4
I80
sg5
I3
sg6
I47
sg7
I18
sg8
I23293
sg9
I11
sg10
I5
sg11
I0
sa(dp1903
g3
I2
sg4
I475
sg5
I30
sg6
I212
sg7
I144
sg8
I8241
sg9
I14
sg10
I0
sg11
I0
sa(dp1904
g3
I0
sg4
I9
sg5
I1
sg6
I3
sg7
I5
sg8
I20066
sg9
I13
sg10
I0
sg11
I0
sa(dp1905
g3
I0
sg4
I0
sg5
I0
sg6
I0
sg7
I0
sg8
I13630
sg9
I2
sg10
I0
sg11
I0
sa(dp1906
g3
I0
sg4
I13
sg5
I2
sg6
I10
sg7
I4
sg8
I17266
sg9
I10
sg10
I0
sg11
I0
sa(dp1907
g3
I0
sg4
I0
sg5
I0
sg6
I0
sg7
I0
sg8
I6580
sg9
I2
sg10
I0
sg11
I0
sa(dp1908
g3
I0
sg4
I58
sg5
I9
sg6
I53
sg7
I15
sg8
I6291
sg9
I7
sg10
I0
sg11
I0
sa(dp1909
g3
I11
sg4
I848
sg5
I11
sg6
I86
sg7
I187
sg8
I21291
sg9
I17
sg10
I20
sg11
I0
sa(dp1910
g3
I0
sg4
I0
sg5
I0
sg6
I0
sg7
I0
sg8
I21575
sg9
I2
sg10
I0
sg11
I0
sa(dp1911
g3
I0
sg4
I214
sg5
I13
sg6
I93
sg7
I61
sg8
I1540
sg9
I16
sg10
I14
sg11
I0
sa(dp1912
g3
I0
sg4
I0
sg5
I0
sg6
I0
sg7
I0
sg8
I21125
sg9
I6
sg10
I0
sg11
I0
sa(dp1913
g8
I204
sa(dp1914
g3
I1
sg4
I307
sg5
I12
sg6
I154
sg7
I65
sg8
I1683
sg9
I11
sg10
I17
sg11
I0
sa(dp1915
g3
I0
sg4
I198
sg5
I12
sg6
I111
sg7
I49
sg8
I23662
sg9
I17
sg10
I21
sg11
I0
sa(dp1916
g3
I0
sg4
I-1
sg5
I0
sg6
I0
sg7
I3
sg8
I14406
sg9
I4
sg10
I0
sg11
I0
sa(dp1917
g3
I0
sg4
I55
sg5
I0
sg6
I0
sg7
I14
sg8
I20695
sg9
I7
sg10
I0
sg11
I0
sa(dp1918
g3
I2
sg4
I200
sg5
I18
sg6
I265
sg7
I61
sg8
I9721
sg9
I14
sg10
I0
sg11
I1
sa(dp1919
g3
I5
sg4
I538
sg5
I18
sg6
I115
sg7
I138
sg8
I1035
sg9
I13
sg10
I25
sg11
I0
sa(dp1920
g3
I0
sg4
I-2
sg5
I8
sg6
I19
sg7
I1
sg8
I4682
sg9
I16
sg10
I13
sg11
I0
sa(dp1921
g3
I0
sg4
I13
sg5
I0
sg6
I0
sg7
I5
sg8
I2196
sg9
I1
sg10
I0
sg11
I0
sa(dp1922
g3
I2
sg4
I102
sg5
I14
sg6
I60
sg7
I26
sg8
I18153
sg9
I16
sg10
I22
sg11
I0
sa(dp1923
g3
I0
sg4
I162
sg5
I0
sg6
I0
sg7
I35
sg8
I13482
sg9
I4
sg10
I0
sg11
I0
sa(dp1924
g3
I2
sg4
I295
sg5
I31
sg6
I267
sg7
I64
sg8
I15433
sg9
I17
sg10
I40
sg11
I1
sa(dp1925
g3
I0
sg4
I0
sg5
I0
sg6
I0
sg7
I0
sg8
I20483
sg9
I3
sg10
I0
sg11
I0
sa(dp1926
g3
I4
sg4
I333
sg5
I12
sg6
I68
sg7
I83
sg8
I10586
sg9
I14
sg10
I16
sg11
I0
sa(dp1927
g3
I3
sg4
I369
sg5
I8
sg6
I56
sg7
I105
sg8
I8925
sg9
I18
sg10
I0
sg11
I0
sa(dp1928
g3
I0
sg4
I0
sg5
I0
sg6
I0
sg7
I0
sg8
I9824
sg9
I2
sg10
I0
sg11
I0
sa(dp1929
g3
I1
sg4
I128
sg5
I1
sg6
I4
sg7
I27
sg8
I13119
sg9
I14
sg10
I3
sg11
I0
sa(dp1930
g3
I1
sg4
I19
sg5
I1
sg6
I2
sg7
I4
sg8
I19408
sg9
I16
sg10
I5
sg11
I0
sa(dp1931
g3
I0
sg4
I310
sg5
I14
sg6
I119
sg7
I94
sg8
I9069
sg9
I12
sg10
I0
sg11
I1
sa(dp1932
g3
I1
sg4
I436
sg5
I11
sg6
I88
sg7
I148
sg8
I1477
sg9
I11
sg10
I0
sg11
I0
sa(dp1933
g3
I0
sg4
I53
sg5
I4
sg6
I34
sg7
I16
sg8
I3265
sg9
I3
sg10
I0
sg11
I0
sa(dp1934
g3
I2
sg4
I237
sg5
I5
sg6
I11
sg7
I70
sg8
I5697
sg9
I16
sg10
I5
sg11
I0
sa(dp1935
g3
I1
sg4
I76
sg5
I2
sg6
I19
sg7
I22
sg8
I21771
sg9
I10
sg10
I2
sg11
I0
sa(dp1936
g3
I0
sg4
I113
sg5
I0
sg6
I0
sg7
I33
sg8
I23670
sg9
I3
sg10
I0
sg11
I0
sa(dp1937
g3
I5
sg4
I947
sg5
I39
sg6
I204
sg7
I251
sg8
I22116
sg9
I16
sg10
I59
sg11
I2
sa(dp1938
g3
I0
sg4
I0
sg5
I0
sg6
I0
sg7
I0
sg8
I13304
sg9
I1
sg10
I0
sg11
I0
sa(dp1939
g3
I0
sg4
I179
sg5
I0
sg6
I0
sg7
I47
sg8
I23410
sg9
I8
sg10
I0
sg11
I0
sa(dp1940
g3
I2
sg4
I326
sg5
I1
sg6
I13
sg7
I75
sg8
I18884
sg9
I12
sg10
I1
sg11
I0
sa(dp1941
g3
I0
sg4
I14
sg5
I3
sg6
I21
sg7
I1
sg8
I5477
sg9
I2
sg10
I3
sg11
I0
sa(dp1942
g3
I6
sg4
I756
sg5
I56
sg6
I497
sg7
I145
sg8
I1857
sg9
I14
sg10
I0
sg11
I1
sa(dp1943
g3
I0
sg4
I408
sg5
I8
sg6
I43
sg7
I97
sg8
I8513
sg9
I17
sg10
I0
sg11
I0
sa(dp1944
g3
I0
sg4
I2
sg5
I0
sg6
I0
sg7
I2
sg8
I6042
sg9
I2
sg10
I0
sg11
I0
sa(dp1945
g8
I5317
sa(dp1946
g3
I0
sg4
I23
sg5
I0
sg6
I0
sg7
I6
sg8
I9168
sg9
I3
sg10
I0
sg11
I0
sa(dp1947
g3
I1
sg4
I138
sg5
I3
sg6
I63
sg7
I27
sg8
I10354
sg9
I7
sg10
I0
sg11
I0
sa(dp1948
g3
I0
sg4
I70
sg5
I1
sg6
I10
sg7
I24
sg8
I1103
sg9
I5
sg10
I0
sg11
I0
sa(dp1949
g3
I0
sg4
I3
sg5
I2
sg6
I24
sg7
I2
sg8
I13239
sg9
I10
sg10
I9
sg11
I0
sa(dp1950
g3
I0
sg4
I166
sg5
I1
sg6
I-1
sg7
I47
sg8
I15903
sg9
I18
sg10
I0
sg11
I0
sa(dp1951
g3
I2
sg4
I31
sg5
I0
sg6
I0
sg7
I9
sg8
I20722
sg9
I12
sg10
I0
sg11
I0
sa(dp1952
g3
I1
sg4
I207
sg5
I11
sg6
I127
sg7
I68
sg8
I11739
sg9
I16
sg10
I0
sg11
I0
sa(dp1953
g3
I4
sg4
I741
sg5
I22
sg6
I192
sg7
I153
sg8
I10839
sg9
I16
sg10
I29
sg11
I0
sa(dp1954
g3
I0
sg4
I561
sg5
I15
sg6
I89
sg7
I123
sg8
I10021
sg9
I8
sg10
I0
sg11
I0
sa(dp1955
g3
I0
sg4
I43
sg5
I3
sg6
I12
sg7
I22
sg8
I4681
sg9
I14
sg10
I3
sg11
I0
sa.