(dp1
VR.J. Bowers
p2
I2110
sVBill Dusenbery
p3
I6132
sVRashad Jennings
p4
I11088
sVDoug Lloyd
p5
I13457
sVJimmy Hargrove
p6
I9059
sVTyrone Wheatley
p7
I23703
sVGary Brown
p8
I2622
sVMike Richardson 
p9
I18617
sVScott Laidlaw
p10
I12776
sVTremayne Stephens
p11
I21237
sVTyrone Rush
p12
I19255
sVAlfonso Smith
p13
I20510
sVVic Nyvall
p14
I16604
sVScoop Gillespie
p15
I7886
sVGreg Hill
p16
I9845
sVTommie Agee
p17
I136
sVMike Tolbert
p18
I22374
sVJerious Norwood
p19
I16548
sVJosh Harris
p20
I9191
sVRon Springs
p21
I21028
sVMike Thomas
p22
I22096
sVHarry Wilson
p23
I24378
sVTony Paige
p24
I16998
sVEssex Johnson 
p25
I11258
sVKevin Smith
p26
I20685
sVClark Gaines
p27
I7505
sVPete Tatman
p28
I21805
sVStacey Driver
p29
I5962
sVJosh Vaughan
p30
I22870
sVStan Fritts
p31
I7392
sVJoe Profit
p32
I17988
sVLarry Csonka 
p33
I4885
sVGary Kosins
p34
I12535
sVCleveland Gary
p35
I7666
sVByron Storer
p36
I21381
sVChris Parker
p37
I17078
sVJohn Crockett
p38
I4791
sVTyrone Anthony
p39
I555
sVRussell Davis 
p40
I5293
sVBrock Forsey
p41
I7156
sVMichael Morton
p42
I15895
sVRick Bell
p43
I1476
sVReggie Evans
p44
I6604
sVAl Hunter
p45
I10504
sVMarrio Grier
p46
I8493
sVTim Harris
p47
I9235
sVElroy Harris
p48
I9163
sVCurtis Bledsoe
p49
I1866
sVC.J. Prosise
p50
I17995
sVAntowain Smith
p51
I20521
sVCurtis Martin 
p52
I14142
sVTed Farmer
p53
I6696
sVJeff Kinney
p54
I12322
sVJames Johnson
p55
I11288
sVFred Willis
p56
I24310
sVBo Matthews
p57
I14299
sVBilly Latsko
p58
I12948
sVWillie Belton
p59
I1503
sVRudy Harris
p60
I9229
sVPeter Tuipulotu
p61
I22593
sVCory Ross
p62
I19110
sVMerril Hoge
p63
I10024
sVChamp Henson
p64
I9671
sVRoosevelt Leaks
p65
I13037
sVTony Fiammetta
p66
I6857
sVIsaac Redman
p67
I18312
sVAndy Livingston
p68
I13443
sVRon Davenport
p69
I5128
sVCurt Warner
p70
I23277
sVTom Bailey
p71
I871
sVPatrick Collins
p72
I4322
sVDarnell Autry
p73
I760
sVArt Malone 
p74
I13925
sVCraig James
p75
I10899
sVGreg Jones
p76
I11591
sVArnold Morgado
p77
I15778
sVJohn Riggins
p78
I18676
sVFred Jackson
p79
I10768
sVRodney Tate
p80
I21803
sVChris Smith
p81
I20559
sVLarry Smith
p82
I20692
sVRobert Burns
p83
I3054
sVMike Archie
p84
I585
sVChristian Okoye
p85
I16769
sVElliott Walker
p86
I23092
sVRoy Shivers
p87
I20158
sVBob Brunet
p88
I2810
sVGreg Pruitt
p89
I18006
sVVince Thompson
p90
I22227
sVTerry Kunz
p91
I12698
sVAveion Cason
p92
I3647
sVWilliam Green
p93
I8412
sVGordon Brown
p94
I2627
sVMike Alstott
p95
I362
sVJalen Richard
p96
I18575
sVEd Williams
p97
I24060
sVEric Ball
p98
I952
sVRyan Terry
p99
I21963
sVDan Rice
p100
I18559
sVJosh Robinson
p101
I18880
sVDeacon Turner
p102
I22634
sVJames Stewart
p103
I21286
sVReggie White
p104
I23807
sVDwight Beverly
p105
I1687
sVXavier Omon
p106
I16839
sVGreg Robinson
p107
I18866
sVAlex Moore
p108
I15643
sVTyler Ervin 
p109
I6521
sVBob Hunt
p110
I10481
sVLarry Poole
p111
I17769
sVWayne Patrick
p112
I17201
sVTim Tyrrell
p113
I22711
sVTravis Stephens
p114
I21236
sVLaMont Jordan
p115
I11755
sVSteve Avery
p116
I774
sVMichael Haddix
p117
I8705
sVKenneth Dixon
p118
I5712
sVLes Strayhorn
p119
I21426
sVTheo Riddick
p120
I18654
sVCorey Grant
p121
I8259
sVGarrett Ford
p122
I7127
sVCurtis Enis
p123
I6487
sVLewis Tillman 
p124
I22304
sVHarvey Unga
p125
I22744
sVChris Brown
p126
I2574
sVHarold Ricks
p127
I18647
sVKareem Hunt
p128
I10496
sVPriest Holmes
p129
I10135
sVSam Scarber
p130
I19595
sVMike Strachan 
p131
I21405
sVJeff Smith
p132
I20649
sVAlonzo Coleman
p133
I4220
sVLarry Todd
p134
I22360
sVCory Boyd
p135
I2141
sVLaRod Stephens-Howling
p136
I21238
sVJason Anderson 
p137
I456
sVRobert DiRico
p138
I5684
sVPerry Harrington
p139
I9121
sVDerrick Gainer
p140
I7502
sVJim Otis
p141
I16907
sVCarl Garrett
p142
I7641
sVThomas Sanders 
p143
I19465
sVRuss Smith
p144
I20768
sVJonathan Wells
p145
I23590
sVJaime Covington
p146
I4651
sVGreg Boykin
p147
I2168
sVBasil Mitchell 
p148
I15463
sVJairo Penaranda
p149
I17336
sVAndra Franklin
p150
I7276
sVLee Bouggess
p151
I2076
sVTyler Varga
p152
I22858
sVRonnie Cruz
p153
I4882
sVAlonzo Highsmith
p154
I9807
sVEarl Denny
p155
I5510
sVJonas Gray
p156
I8312
sVAlvin Mitchell 
p157
I15461
sVKen Simonton
p158
I20313
sVJim Hooks
p159
I10176
sVKevan Barlow
p160
I1075
sVWendell Smallwood
p161
I20487
sVAmp Lee 
p162
I13074
sVAhman Green
p163
I8339
sVCedric Peerman
p164
I17314
sVGene Donaldson
p165
I5786
sVMichael LeBlanc
p166
I13056
sVTony Burse
p167
I3080
sVGlen Bonner
p168
I1994
sVCid Edwards
p169
I6260
sVScott Williams
p170
I24240
sVPreston Pearson
p171
I17297
sVObafemi Ayanbadejo
p172
I782
sVDarrin Nelson
p173
I16264
sVNorm Bulaich
p174
I2937
sVFrank Pollard
p175
I17741
sVOstell Miles
p176
I15264
sVPhil Frye
p177
I7415
sVMichael Basnight
p178
I1221
sVRich Diana
p179
I5594
sVRyan Mathews
p180
I14267
sVWillis Crenshaw
p181
I4762
sVCarl Byrum
p182
I3219
sVDeShawn Wynn
p183
I24796
sVDamon Washington
p184
I23321
sVJamaal Branch
p185
I2263
sVVilnis Ezerins
p186
I6624
sVNick Eddy
p187
I6233
sVAkeem Hunt
p188
I10479
sVCharles Ali
p189
I263
sVEd Toner
p190
I22407
sVChuck McSwain
p191
I15031
sVJim Culbreath
p192
I4891
sVCorey Croom
p193
I4817
sVHoward Stevens
p194
I21261
sVNathan Poole
p195
I17771
sVMosi Tatupu
p196
I21810
sVRandy Cuthbert
p197
I4991
sVTom Barrington
p198
I1170
sVCliff Taylor
p199
I21837
sVChris Massey
p200
I14235
sVAnthony Steels
p201
I21175
sVRobert Farmer
p202
I6694
sVTommy Mason
p203
I14228
sVTom Donchez
p204
I5790
sVJoe Burns
p205
I3049
sVDon Testerman
p206
I21968
sVJohn Chirico
p207
I3855
sVTeddy Bailey
p208
I869
sVBrent Moss
p209
I15925
sVCorrell Buckhalter
p210
I2895
sVJeff Womack
p211
I24578
sVMike Augustyniak
p212
I738
sVBernie Parmalee 
p213
I17132
sVRob Carpenter
p214
I3473
sVErik Bickerstaff
p215
I1700
sVTodd Spencer
p216
I20987
sVVirgil Robinson
p217
I18914
sVNic Grigsby
p218
I8547
sVDaryl Johnston
p219
I11463
sVDoug Kotar
p220
I12543
sVSenorise Perry 
p221
I17422
sVKevin Bouie
p222
I2077
sVRobert Newhouse
p223
I16335
sVTommy Reamon
p224
I18282
sVWillie Rodgers 
p225
I18962
sVBrad Baxter
p226
I1301
sVCharlie Harraway
p227
I9109
sVWarren Williams
p228
I24289
sVDanny Pierce
p229
I17589
sVKermit Johnson
p230
I11327
sVCharles Way
p231
I23444
sVGerald Riggs
p232
I18679
sVVick King
p233
I12312
sVBobby Phillips
p234
I17530
sVQuentin Griffin
p235
I8518
sVJohnny Hector
p236
I9530
sVRichard Murphy
p237
I16072
sVTim Biakabutuka
p238
I1693
sVMartin Sartin
p239
I19520
sVJeff Moore
p240
I15687
sVDeAndra Cobb
p241
I4126
sVDavid Nelson
p242
I16265
sVHarold Hart 
p243
I9285
sVMichael Bates
p244
I1249
sVDave D'Addio
p245
I5000
sVRandy McMillan
p246
I14953
sVKarl Bernard
p247
I1604
sVO.J. Simpson
p248
I20332
sVJamie Morris 
p249
I15834
sVLeon Burns
p250
I3052
sVBilly Campfield
p251
I3357
sVRick Fenney
p252
I6815
sVMarsh White 
p253
I23793
sVJehuu Caulcrick
p254
I3688
sVRussell White
p255
I23811
sVBilly Jackson
p256
I10730
sVRon Johnson
p257
I11405
sVMadre Hill
p258
I9872
sVJames Mungro
p259
I16032
sVReggie Brown
p260
I2707
sVChad Spann
p261
I20940
sVKeylon Kincade
p262
I12242
sVDamien Anderson 
p263
I430
sVStanford Jennings
p264
I11090
sVAdrian Murrell
p265
I16098
sVWilbert Haslip
p266
I9347
sVJack Holmes
p267
I10123
sVStepfan Taylor
p268
I21897
sVMarcus Allen
p269
I323
sVJarrett Payton
p270
I17267
sVRobert Edwards
p271
I6289
sVKevin Faulk
p272
I6727
sVLes Goodman
p273
I8099
sVGarrett Limbrick
p274
I13363
sVRalph Kurek
p275
I12704
sVWali Lundy
p276
I13705
sVRyan Grant
p277
I8278
sVMichael Bush
p278
I3113
sVJohn Farley
p279
I6683
sVEddie Moss
p280
I15927
sVRick Bayless
p281
I1310
sVCurtis Brinkley
p282
I2404
sVMercury Morris 
p283
I15844
sVEddie Hicks
p284
I9772
sVChris McLemore
p285
I14922
sVWalter Dean
p286
I5392
sVRay Nealy
p287
I16226
sVRobert Drummond
p288
I5974
sVAndy Bolton
p289
I1976
sVGary Hayman
p290
I9460
sVHerman Fontenot
p291
I7107
sVLee Rouson
p292
I19156
sVJackie Battle
p293
I1265
sVChris Gronkowski
p294
I8570
sVEarnest Jackson
p295
I10761
sVMike Dennis
p296
I5504
sVTarik Cohen 
p297
I4185
sVRicky Patton
p298
I17231
sVCharles Gladman
p299
I7937
sVChuck Mercein
p300
I15120
sVCecil Sapp
p301
I19504
sVFrank Hawkins
p302
I9398
sVAvon Cobourne
p303
I4141
sVWoodrow Dantzler
p304
I5082
sVSteve Powell
p305
I17878
sVBen Gregory
p306
I8469
sVLarry Robinson
p307
I18886
sVTrey Watts
p308
I23443
sVDahrran Diedrick
p309
I5623
sVPat Chaffey
p310
I3723
sVMike Reed
p311
I18358
sVRoy Helu
p312
I9577
sVChris Pressley
p313
I17913
sVNate Johnson
p314
I11376
sVKaulana Park
p315
I17068
sVDevonta Freeman 
p316
I7342
sVWillie Joyner
p317
I11801
sVGlenn Winston
p318
I24496
sVGary McDermott
p319
I14648
sVJalen Parmele
p320
I17133
sVSteve Davis 
p321
I5306
sVDominique Ross
p322
I19115
sVAlvin Ross
p323
I19108
sVJim Earley
p324
I6175
sVSedrick Irvin
p325
I10663
sVDerrick Moore
p326
I15672
sVJarryd Hayne
p327
I9462
sVAllen Smith
p328
I20513
sVKevin McDougal
p329
I14697
sVSteve Atkins
p330
I712
sVJimmy Smith
p331
I20662
sVMatt Jones
p332
I11664
sVA.J. Jones
p333
I11485
sVRich Erenberg
p334
I6504
sVSecdrick McIntyre
p335
I14849
sVTimmy Newsome
p336
I16357
sVRobert Lavette
p337
I12974
sVRay Zellars
p338
I24980
sVRicky Powers
p339
I17888
sVNick Bell
p340
I1474
sVRon Lamb
p341
I12794
sVNapoleon McCallum
p342
I14476
sVCurtis Dickey
p343
I5609
sVChuck Weatherspoon
p344
I23470
sVJimmy DuBose
p345
I5991
sVLeroy Sledge
p346
I20457
sVBroderick Sargent
p347
I19514
sVRoger Lawson
p348
I13011
sVDarren McFadden
p349
I14725
sVJoe McKnight 
p350
I14903
sVJohn Tuggle
p351
I22583
sVEddie George
p352
I7763
sVBrian Calhoun
p353
I3269
sVWillie Ellison
p354
I6422
sVEarl Ferrell
p355
I6848
sVDarryl Clark
p356
I3957
sVPete Banaszak
p357
I977
sVMichael Hill
p358
I9875
sVJerry Eckwood
p359
I6228
sVGarrett Wolfe
p360
I24565
sVJim Grabowski
p361
I8186
sVWillie Turral
p362
I22679
sVJohn Stephens
p363
I21221
sVJohnny Davis
p364
I5251
sVMatthew Dayes
p365
I5374
sVWalter Abercrombie
p366
I18
sVSteve Griffin
p367
I8525
sVHerbert Goodman 
p368
I8097
sVRoland Harper
p369
I9104
sVBoobie Clark
p370
I3943
sVTracy Johnson
p371
I11440
sVBruce Perkins 
p372
I17375
sVJamaal Charles
p373
I3772
sVC.J. Anderson
p374
I421
sVStephen Griffin
p375
I8524
sVMichael Gunter
p376
I8654
sVAmeer Abdullah
p377
I10
sVDoug Easlick
p378
I6184
sVQuincy Wilson
p379
I24413
sVDerrick Foster 
p380
I7177
sVChad Morton
p381
I15887
sVJames Bostic
p382
I2056
sVMelvin Gordon
p383
I8145
sVJerry Ellison
p384
I6416
sVKevin Long 
p385
I13546
sVWoody Campbell
p386
I3355
sVBrian Allen
p387
I275
sVLeon McQuay
p388
I15014
sVKenny Lewis
p389
I13295
sVLawrence McCutcheon
p390
I14632
sVPete Larson
p391
I12918
sVRobert Delpino
p392
I5459
sVDerrick Ward
p393
I23244
sVVonta Leach
p394
I13029
sVPete Johnson
p395
I11385
sVDoug Dennison
p396
I5507
sVCharles Alexander
p397
I207
sVKenyon Cotton
p398
I4623
sVDavid Thompson
p399
I22169
sVKarim Abdul-Jabbar
p400
I8
sVOscar Reed
p401
I18360
sVRod McNeill
p402
I14993
sVKen Thomas
p403
I22077
sVLe'Shai Maston
p404
I14248
sVMatt Suhey
p405
I21535
sVJohn Avery
p406
I772
sVWalter Landers
p407
I12817
sVJeff Stanciel
p408
I21097
sVAndre Hall
p409
I8784
sVRandy Love
p410
I13619
sVCalvin Thomas
p411
I22010
sVVaughn Dunbar
p412
I6065
sVJoe Cribbs
p413
I4768
sVFranco Harris
p414
I9167
sVEmmitt Smith
p415
I20608
sVBob Ferrell
p416
I6847
sVTom Thompson
p417
I22221
sVAnthony McDowell
p418
I14704
sVSamkon Gado
p419
I7485
sVAnthony Thomas
p420
I22001
sVDwayne Wright
p421
I24718
sVJavon Ringer
p422
I18712
sVAntonio Andrews
p423
I509
sVJim Brumfield
p424
I2799
sVJack Maitland
p425
I13899
sVKregg Lumpkin
p426
I13694
sVPat Moriarty
p427
I15806
sVArlen Harris
p428
I9131
sVSherman Smith
p429
I20778
sVDon Shy
p430
I20206
sVGeorge Franklin
p431
I7285
sVBobby Hammond 
p432
I8910
sVDerrick Harris
p433
I9154
sVKeith Jones
p434
I11638
sVBrad Davis
p435
I5169
sVPaul Dunn
p436
I6098
sVArthur Whittington
p437
I23869
sVArt Best
p438
I1663
sVMikel Leshoure
p439
I13211
sVWayne Wilson
p440
I24438
sVHarlan Huckleby
p441
I10360
sVEric Bieniemy
p442
I1711
sVDelvin Joyce
p443
I11792
sVTim Newman
p444
I16347
sVDarryl Harris
p445
I9150
sVPaul Gipson
p446
I7920
sVSammy Morris 
p447
I15851
sVChester Taylor
p448
I21833
sVAaron Hayden
p449
I9420
sVWillie Asbury
p450
I664
sVMike Goodson
p451
I8110
sVLarry Schreiber
p452
I19704
sVEarnest Byner
p453
I3197
sVAnthony Johnson 
p454
I11159
sVIzzy Lang
p455
I12853
sVLaMichael James
p456
I10912
sVDameon Hunter
p457
I10508
sVCurtis Keaton
p458
I11983
sVBronson Hill
p459
I9825
sVCleo Miller
p460
I15299
sVRob Scribner
p461
I19848
sVMike Bell
p462
I1472
sVKevin Williams
p463
I24151
sVOdell Lawson
p464
I13010
sVDalvin Cook
p465
I4458
sVTerdell Middleton 
p466
I15228
sVJohnny Bailey
p467
I858
sVQuinn Johnson
p468
I11388
sVBilly Harris
p469
I9135
sVLorenzo Booker
p470
I2001
sVElijhaa Penny
p471
I17349
sVCliff Chatman
p472
I3789
sVLeon Perry 
p473
I17414
sVEric Lane
p474
I12835
sVTony Davis 
p475
I5313
sVEarl Campbell
p476
I3324
sVCharlie Brown
p477
I2568
sVRandy Kinder
p478
I12246
sVJerome Felton
p479
I6799
sVJeremy Langford
p480
I12860
sVAntone Smith
p481
I20519
sVRobert Parker
p482
I17106
sVDusty McGrorty
p483
I14817
sVRyan Moats
p484
I15535
sVVictor Jones
p485
I11724
sVDerrick McAdoo
p486
I14425
sVEddie Williams
p487
I24062
sVSteve Bartalo
p488
I1185
sVRay Rice
p489
I18567
sVKenton Keith
p490
I12014
sVPete Roth
p491
I19138
sVGreg Oliver
p492
I16799
sVMike Green
p493
I8394
sVDarnell Powell
p494
I17864
sVDarrell Thompson
p495
I22166
sVJeff Jordan
p496
I11751
sVJamie Mueller
p497
I15979
sVRicky Ervins
p498
I6523
sVMontario Hardesty
p499
I9017
sVJustin Davis
p500
I5252
sVSteve Crosby
p501
I4827
sVJim Mankins
p502
I13965
sVChris Fuamatu-Ma'afala
p503
I7420
sVChris Barclay
p504
I1049
sVMewelde Moore
p505
I15718
sVDevin Moore
p506
I15673
sVDarius Jackson
p507
I10753
sVJermaine Williams
p508
I24115
sVLewis Jolley
p509
I11477
sVBobby Batton
p510
I1275
sVJosh Scobey
p511
I19768
sVLaurence Maroney
p512
I14071
sVJim Bertelsen
p513
I1650
sVAlan Reid
p514
I18417
sVReggie Cobb
p515
I4131
sVErrict Rhett
p516
I18535
sVRicky Porter
p517
I17811
sVJeff Alexander
p518
I223
sVJames Conner
p519
I4418
sVJune Henley
p520
I9634
sVShaud Williams
p521
I24241
sVJoe Dudek
p522
I6006
sVJunior Tautalatasi
p523
I21815
sVDonald Jordan
p524
I11746
sVJohn Fuqua
p525
I7463
sVOwen Schmitt
p526
I19671
sVKimble Anders
p527
I397
sVRich Alexis
p528
I248
sVDon Goodman
p529
I8094
sVRickey Anderson 
p530
I483
sVRonnie Brown
p531
I2723
sVBrian Duncan
p532
I6066
sVLouis Rankin
p533
I18206
sVMaurice Smith
p534
I20713
sVReggie Dupard
p535
I6109
sVJerone Davison
p536
I5338
sVJohn Harvey
p537
I9327
sVKeyvan Jenkins
p538
I11058
sVJason Bratton
p539
I2291
sVJeremiah Johnson
p540
I11296
sVGeorge Rogers
p541
I18995
sVGeorge Nock
p542
I16472
sVLarry Canada
p543
I3363
sVRay Williams
p544
I24210
sVTony Smith
p545
I20799
sVJim Braxton
p546
I2301
sVDe'Anthony Thomas
p547
I22027
sVCharlie Pittman
p548
I17657
sVFreeman McNeil
p549
I14986
sVDavid Cobb
p550
I4125
sVDel Thompson
p551
I22170
sVCullen Bryant
p552
I2845
sVJohn Holifield
p553
I10055
sVChris Ivory
p554
I10701
sVEddie Lacy
p555
I12749
sVAl Haywood
p556
I9483
sVArrike James
p557
I10892
sVBilly Joe
p558
I11136
sVRonald Scott
p559
I19828
sVMike Hart 
p560
I9293
sVGale Sayers
p561
I19574
sVLarry Cowan
p562
I4657
sVMark Ingram
p563
I10635
sVTony Lorick
p564
I13584
sVRaheem Mostert
p565
I15941
sVCharcandrick West 
p566
I23645
sVJoe Williams
p567
I24124
sVDe'Mond Parker
p568
I17082
sVJames Wofford
p569
I24553
sVAllen Carter
p570
I3549
sVDarryl Oliver
p571
I16797
sVBeanie Wells
p572
I23582
sVJerome Johnson
p573
I11297
sVDerek Loville
p574
I13629
sVSpencer Tillman 
p575
I22308
sVGary Anderson 
p576
I449
sVScott Greene
p577
I8435
sVWillard Harrell
p578
I9116
sVDavid McCluskey
p579
I14549
sVTim Hightower
p580
I9812
sVJon Williams
p581
I24134
sVAnthony Corley
p582
I4563
sVOtis Wonsley
p583
I24586
sVRickey Young
p584
I24906
sVLeon Washington
p585
I23345
sVAlvin Moore
p586
I15645
sVSamaje Perine
p587
I17370
sVWillie Spencer
p588
I20988
sVBralon Addison
p589
I111
sVChet Winters 
p590
I24505
sVKeith Elias
p591
I6348
sVMike Gillislee 
p592
I7901
sVHoward Griffith
p593
I8531
sVSteve Smith
p594
I20782
sVDuke Johnson
p595
I11246
sVMike Dingle
p596
I5674
sVPooh Bear Williams
p597
I24204
sVSpencer Ware
p598
I23267
sVLeon Neal
p599
I16216
sVJustin Forsett
p600
I7155
sVBruce Hansen
p601
I8972
sVAhmad Bradshaw
p602
I2224
sVJosh Ashton
p603
I677
sVDino Philyaw
p604
I17564
sVGene Thomas
p605
I22048
sVRondell Mealey
p606
I15052
sVJohnathan Franklin
p607
I7289
sVTony Dorsett
p608
I5830
sVShawn Bryson
p609
I2869
sVMatt Lawrence
p610
I12995
sVGreg Bell
p611
I1452
sVWandy Williams
p612
I24288
sVErnie Thompson
p613
I22179
sVCraig Taylor
p614
I21842
sVChris Polk
p615
I17732
sVJames Ford
p616
I7132
sVNick Maddox
p617
I13839
sVDana Wright
p618
I24717
sVWendell Tyler
p619
I22701
sVReno Mahe
p620
I13881
sVTerron Ward
p621
I23257
sVJames Lynch 
p622
I13746
sVKeiland Williams
p623
I24144
sVHarvey Williams
p624
I24087
sVArrington Jones
p625
I11496
sVToby Gerhart 
p626
I7783
sVReggie Sanderson 
p627
I19467
sVJavorius Allen
p628
I309
sVTony Benjamin
p629
I1523
sVFred Lane
p630
I12837
sVGerald Willhite
p631
I23971
sVBill Brown
p632
I2550
sVMarcel Shipp
p633
I20145
sVJamal Lewis
p634
I13283
sVCliff McClain
p635
I14513
sVRandy Schultz
p636
I19731
sVAnthony Anderson 
p637
I405
sVJoe Montgomery
p638
I15608
sVCarl Monroe 
p639
I15590
sVTim Spencer
p640
I20986
sVKenny Bynum
p641
I3199
sVQuentin Walker
p642
I23122
sVGary Tucker
p643
I22564
sVDanny Woodhead
p644
I24616
sVMarion Butts
p645
I3182
sVSpeedy Neal
p646
I16224
sVJamie Lawson
p647
I13005
sVBrandon Burks
p648
I3010
sVMichael Smith
p649
I20716
sVHarry Jones 
p650
I11594
sVTopper Clemons
p651
I4085
sVCharles Crawford 
p652
I4732
sVLarry Conjar
p653
I4394
sVJohn Williams
p654
I24130
sVJordan Howard
p655
I10295
sVWendell Hayes
p656
I9454
sVJesse Taylor
p657
I21865
sVMarcus Dupree
p658
I6115
sVChuck Banks
p659
I997
sVLeroy Thompson
p660
I22199
sVMark Higgs
p661
I9804
sVSteve Harkey
p662
I9064
sVEric McCoo
p663
I14564
sVBobby Humphrey
p664
I10455
sVNicky Sualua
p665
I21519
sVChristine Michael 
p666
I15195
sVKenyan Drake
p667
I5938
sVDon Hardeman 
p668
I9009
sVCharles White
p669
I23745
sVDennis Morgan
p670
I15789
sVMarlon Barnes
p671
I1106
sVSam Harrell
p672
I9115
sVKelvin Bryant
p673
I2855
sVRueben Mayes
p674
I14385
sVLex Hilliard
p675
I9908
sVWilliam Bell
p676
I1485
sVLarry Morris 
p677
I15840
sVBarry Sanders 
p678
I19437
sVWarren Marshall
p679
I14122
sVRich Johnson
p680
I11397
sVRex Burkhead
p681
I3009
sVLeroy Harris
p682
I9198
sVEarl Gant
p683
I7578
sVBrent Fullwood
p684
I7454
sVHerman Hunter
p685
I10515
sVPreston Johnson
p686
I11387
sVGreg Lewis
p687
I13278
sVGerry Allen
p688
I298
sVLeroy Hoard
p689
I9964
sVRon Sayers
p690
I19575
sVRichard Bell
p691
I1475
sVBobby Burnett 
p692
I3026
sVBobby Thompson
p693
I22155
sVJim Jodat
p694
I11135
sVPaul Ott Carruth
p695
I3533
sVSteven Schnarr
p696
I19675
sVOrleans Darkwa
p697
I5102
sVRashawn Jackson
p698
I10822
sVVick Ballard
p699
I967
sVTerry Allen
p700
I335
sVAnthony Daigle
p701
I5023
sVVagas Ferguson 
p702
I6836
sVDelone Carter
p703
I3565
sVSherriden May
p704
I14368
sVSonny Collins
p705
I4331
sVDwight Garner
p706
I7626
sVBill Butler
p707
I3138
sVMike Morgan
p708
I15801
sVJosh Ferguson
p709
I6828
sVRickey Claitt
p710
I3925
sVPatrick Egu
p711
I6307
sVJohnny Roland
p712
I19029
sVTony Cherry
p713
I3818
sVWalter Holman
p714
I10110
sVAaron Stecker
p715
I21162
sVTravis Jervey 
p716
I11110
sVDavid Kirtman
p717
I12356
sVQuinton Ganther
p718
I7582
sVKerry Porter
p719
I17806
sVRocky Bleier
p720
I1873
sVRandy Jackson
p721
I10821
sVJohn Simon
p722
I20301
sVJames Joseph
p723
I11775
sVDonnell Bennett
p724
I1537
sVJahvid Best
p725
I1665
sVTony Boddie
p726
I1921
sVCraig Ellis
p727
I6394
sVElijah McGuire 
p728
I14819
sVDanny Ware
p729
I23261
sVTravis Williams 
p730
I24270
sVLincoln Minor
p731
I15432
sVLawrence Gaines
p732
I7508
sVCraig Heyward
p733
I9750
sVTiki Barber
p734
I1045
sVAdger Armstrong 
p735
I609
sVDoug Martin 
p736
I14151
sVMike Varajon
p737
I22855
sVTony Hunter
p738
I10534
sVDerrick Harmon 
p739
I9070
sVLennox Gordon
p740
I8143
sVEmerson Boozer
p741
I2020
sVP.J. Pope
p742
I17790
sVKen Brown
p743
I2657
sVTom Sullivan
p744
I21566
sVBeno Bryant
p745
I2835
sVJack DeGrenier
p746
I5426
sVKen Oxendine
p747
I16966
sVKapri Bibbs
p748
I1698
sVButler By'not'e
p749
I3186
sVNick Kowgios
p750
I12564
sVHerschel Walker
p751
I23099
sVJoe Aska
p752
I682
sVNick Giaquinto
p753
I7818
sVDan Doornink
p754
I5813
sVJames Jackson
p755
I10778
sVLamar Gordon
p756
I8141
sVLeo Hayden
p757
I9424
sVEd Stansbury
p758
I21117
sVCharlie Thomas
p759
I22014
sVLeeland McElroy
p760
I14713
sVPaul Shields
p761
I20132
sVKay-Jay Harris
p762
I9192
sVLarry Crowe
p763
I4856
sVBrendan McCarthy
p764
I14491
sVMichael Ford 
p765
I7135
sVJerry Aldridge 
p766
I195
sVTom Rathman
p767
I18232
sVCedric Houston
p768
I10260
sVHoyle Granger
p769
I8248
sVEddie Hill
p770
I9840
sVDevontae Booker
p771
I1999
sVDerrick Coleman
p772
I4237
sVCharlie Rogers
p773
I18986
sVBrian Milne
p774
I15399
sVEdgerrin James
p775
I10902
sVTom Woodeshick
p776
I24614
sVChris Thompson
p777
I22162
sVDan Alexander
p778
I210
sVSidney Thornton 
p779
I22255
sVWoodie Pippens
p780
I17644
sVPaul Robinson
p781
I18900
sVRicky Whittle
p782
I23874
sVDoug Dressler
p783
I5955
sVJ.J. Arrington
p784
I648
sVDarryl Clack
p785
I3917
sVKelly Cook
p786
I4470
sVLenDale White
p787
I23787
sVRonney Jenkins
p788
I11069
sVRashaan Shehee
p789
I20062
sVGerald White
p790
I23770
sVVerron Haynes
p791
I9475
sVMack Boatner
p792
I1907
sVDexter Carter
p793
I3566
sVSam Cunningham
p794
I4936
sVToussaint Tyler
p795
I22700
sVBilly Sims
p796
I20337
sVGerry Ellis
p797
I6398
sVByron Marshall
p798
I14100
sVLonnie Perrin
p799
I17400
sVKevin Harmon 
p800
I9074
sVBilal Powell
p801
I17858
sVGarry James
p802
I10904
sVMike Adamle
p803
I48
sVWill Ta'ufo'ou
p804
I21720
sVStephen Davis 
p805
I5305
sVChristian McCaffrey 
p806
I14460
sVDavid Lang
p807
I12851
sVDe Dorsey
p808
I5832
sVDamien Nash
p809
I16185
sVRoy Hopkins
p810
I10194
sVFrank Quayle
p811
I18077
sVEarnest Graham
p812
I8214
sVCedric Jackson
p813
I10742
sVMarc Logan
p814
I13502
sVLarry Brinson
p815
I2409
sVBarry Word
p816
I24675
sVKen Lacy
p817
I12750
sVStevan Ridley
p818
I18664
sVTerrell Davis 
p819
I5308
sVChuck Sanders 
p820
I19444
sVJim Harrison
p821
I9260
sVAnthony Sherman
p822
I20111
sVWayne Mosley
p823
I15923
sVTroymaine Pope
p824
I17792
sVMolly McGee
p825
I14760
sVAaron Craver
p826
I4728
sVMike Pringle
p827
I17964
sVDonny Anderson 
p828
I438
sVBrad Hubbert
p829
I10357
sVWinslow Oliver
p830
I16809
sVD.J. Dozier
p831
I5928
sVLeonard Williams
p832
I24164
sVTommy Vardell
p833
I22856
sVJohn Brockington 
p834
I2456
sVRay Strong
p835
I21464
sVRonnie Bull
p836
I2941
sVMark van Eeghen
p837
I22814
sVRick Berns
p838
I1616
sVGlenn Ellison
p839
I6415
sVKevin Dudley
p840
I6012
sVMark Green
p841
I8390
sVMoe Williams
p842
I24191
sVDomanick Williams
p843
I24054
sVBooker Russell
p844
I19270
sVJohn Cappelletti
p845
I3401
sVJamal Anderson 
p846
I454
sVKnile Davis 
p847
I5258
sVBobby Duhon
p848
I6038
sVLuke Lawton
p849
I13014
sVMike Rozier
p850
I19191
sVBrad Muster
p851
I16114
sVLloyd Pate
p852
I17183
sVDon Highsmith
p853
I9809
sVMichael Hicks
p854
I9783
sVLionel Vital
p855
I22968
sVThomas Rawls
p856
I18248
sVMarshawn Lynch 
p857
I13751
sVCollin Mooney
p858
I15632
sVShaun Alexander 
p859
I242
sVRoosevelt Potts
p860
I17844
sVC.J. Ham
p861
I8858
sVDou Innocent
p862
I10642
sVWoody Green
p863
I8414
sVClinton Portis
p864
I17821
sVBo Hickey
p865
I9756
sVCharlie Davis
p866
I5184
sVRyan Christopherson
p867
I3888
sVNate Eachus
p868
I6164
sVAllan Clark
p869
I3937
sVOwen Gill
p870
I7881
sVFreddie Bradley
p871
I2213
sVDonnie Craft
p872
I4703
sVRon McBride
p873
I14448
sVVernand Morency
p874
I15772
sVCedric Cobbs
p875
I4137
sVBranden Oliver
p876
I16794
sVKa'Deem Carey
p877
I3425
sVTim Castille
p878
I3667
sVMossis Madu
p879
I13848
sVGeorge Peoples
p880
I17355
sVPaul Smith
p881
I20735
sVFloyd Little
p882
I13425
sVRyan Torain
p883
I22426
sVReece Morrison 
p884
I15866
sVKevin Willhite
p885
I23972
sVWilliam Powell
p886
I17883
sVAndre Thomas
p887
I22000
sVCarlos King
p888
I12270
sVDaniel Thomas
p889
I22024
sVAlvin Pearman
p890
I17283
sVJoe Delaney
p891
I5439
sVIan Smart
p892
I20488
sVRichard Medlin
p893
I15062
sVCiatrick Fason
p894
I6722
sVWayne Morris 
p895
I15855
sVCurtis Stewart
p896
I21280
sVTimmy Smith
p897
I20796
sVRudi Johnson
p898
I11411
sVPhil Francis 
p899
I7257
sVCharlie Garner
p900
I7625
sVJames Black
p901
I1788
sVAndre Brown
p902
I2540
sVJoe Banyard
p903
I1022
sVReggie Branch
p904
I2265
sVGeorge Adams
p905
I66
sVKeith Joseph
p906
I11779
sVSteve Jones
p907
I11705
sVTony Jordan
p908
I11767
sVLarry Bowie
p909
I2115
sVNorm Granger
p910
I8249
sVAlbert Bentley
p911
I1567
sVDon Jackson
p912
I10760
sVRan Carthon
p913
I3610
sVTony Vinson
p914
I22962
sVRoss Montgomery
p915
I15614
sVOlaniyi Sobomehin
p916
I20875
sVStacey Mack
p917
I13803
sVBryce Brown
p918
I2556
sVByron Hanspard
p919
I8995
sVEldra Buckley
p920
I2899
sVJewerl Thomas
p921
I22062
sVBob Hudson
p922
I10367
sVKory Chapman
p923
I3763
sVAdimchinobe Echemandu
p924
I6215
sVIvory Lee Brown
p925
I2632
sVElvis Joseph
p926
I11774
sVMike Pruitt
p927
I18010
sVChris Floyd 
p928
I7054
sVLeon Bright
p929
I2394
sVDantrell Savage
p930
I19553
sVSteve Engel
p931
I6471
sVRicky Moore
p932
I15728
sVLeonard Moore
p933
I15707
sVDarren Evans
p934
I6566
sVGarland Jean-Batiste
p935
I10984
sVBill Johnson 
p936
I11174
sVBernard Pierce
p937
I17587
sVSammy Winder
p938
I24456
sVJermaine Fazande
p939
I6751
sVLouie Giammona
p940
I7813
sVMark Kellar
p941
I12024
sVGarrison Hearst
p942
I9506
sVJason Wright
p943
I24732
sVJeff Rodenberger
p944
I18946
sVRon Rector
p945
I18297
sVKerwynn Williams
p946
I24148
sVJames White 
p947
I23774
sVKory Sheets
p948
I20058
sVMontee Ball
p949
I959
sVRaymont Harris
p950
I9222
sVTerry Wells
p951
I23600
sVSonny Davis 
p952
I5303
sVTyson Thompson
p953
I22226
sVLydell Mitchell 
p954
I15495
sVBobby Morse
p955
I15880
sVEarnest Hunter
p956
I10513
sVTony Carter
p957
I3601
sVSedrick Shaw
p958
I20039
sVDeAndre Washington
p959
I23325
sVArchie Griffin
p960
I8499
sVWalt Easley
p961
I6183
sVA.B. Brown
p962
I2533
sVQuinn Porter
p963
I17809
sVJerome Harrison
p964
I9259
sVJack Harper
p965
I9094
sVSammy Price
p966
I17947
sVEd Marinaro
p967
I14046
sVTrey Williams
p968
I24275
sVDavid Allen
p969
I284
sVJavarris Williams
p970
I24111
sVDexter Bussey
p971
I3127
sVDaniel Lasco
p972
I12922
sVDan Reeder
p973
I18369
sVLouis Carter
p974
I3583
sVStanley Wilson 
p975
I24423
sVLee Suggs
p976
I21530
sVBob Thomas
p977
I22005
sVEric Lynch 
p978
I13744
sVDreamius Smith
p979
I20599
sVDarren Sproles
p980
I21034
sVJerris McPhail
p981
I15003
sVLarry Collins
p982
I4316
sVLeShon Johnson
p983
I11346
sVLeGarrette Blount
p984
I1890
sVRay Graham
p985
I8229
sVTim Hall
p986
I8835
sVSonny Campbell
p987
I3351
sVDave Gagnon
p988
I7499
sVBrian Satterfield
p989
I19529
sVRoland Hooks
p990
I10177
sVLee White
p991
I23786
sVWalt Garrison
p992
I7657
sVJim Browne
p993
I2763
sVWilliam Andrews
p994
I523
sVJames Jones
p995
I11608
sVDennis Johnson
p996
I11237
sVMarcus Holliday
p997
I10076
sVJimmy Rogers
p998
I19000
sVRonnie Coleman
p999
I4259
sVBobby Rainey
p1000
I18152
sVPerry Williams
p1001
I24201
sVLeonard Russell
p1002
I19284
sVBernard Scott
p1003
I19774
sVLawrence Phillips
p1004
I17547
sVDavid Adams
p1005
I61
sVOscar Smith
p1006
I20731
sVDave Preston
p1007
I17917
sVMarion Grice
p1008
I8491
sVRonald Humphrey
p1009
I10462
sVCecil Collins
p1010
I4295
sVBen Tate
p1011
I21795
sVVance Mueller
p1012
I15980
sVJohn Conner
p1013
I4419
sVUndra Johnson
p1014
I11450
sVTatum Bell
p1015
I1480
sVGene Foster 
p1016
I7182
sVManfred Moore
p1017
I15711
sVAlfred Morris 
p1018
I15817
sVKen Johnson
p1019
I11322
sVChuck Foreman
p1020
I7143
sVMickey Fitzgerald
p1021
I6968
sVLe'Ron McClain
p1022
I14518
sVJames Mayberry 
p1023
I14371
sVJoe Orduna
p1024
I16854
sVJerry Butler
p1025
I3160
sVKevin Scott
p1026
I19811
sVGary Downs
p1027
I5916
sVMike Brunson
p1028
I2817
sVDamien Berry 
p1029
I1630
sVTony Hunt
p1030
I10503
sVCurtis Brown
p1031
I2585
sVLousaka Polite
p1032
I17730
sVJon Keyworth
p1033
I12186
sVCurtis Adams
p1034
I58
sVSteve Thurlow
p1035
I22273
sVRobert Walker
p1036
I23127
sVChris Henry 
p1037
I9652
sVMarlion Jackson
p1038
I10811
sVIsaiah Pead
p1039
I17275
sVDavid Wilson
p1040
I24360
sVAnthony Hutchison
p1041
I10570
sVCharley Young
p1042
I24877
sVJunior Coffey
p1043
I4171
sVMike Meade
p1044
I15044
sVTerrence Flagler
p1045
I6979
sVDaryl Richardson 
p1046
I18602
sVDwone Hicks
p1047
I9771
sVChuck Muncie
p1048
I16024
sVDave Barrett
p1049
I1157
sVFrank Harvey
p1050
I9323
sVAntonio Pittman
p1051
I17655
sVWilmont Perry 
p1052
I17428
sVJoffrey Reynolds
p1053
I18518
sVNoe Gonzalez
p1054
I8067
sVCasey Tiumalu
p1055
I22346
sVKim Jones
p1056
I11644
sVRon Groce
p1057
I8567
sVVaughn Hebron
p1058
I9522
sVScottie Graham
p1059
I8231
sVRich Ellender
p1060
I6360
sVRichard Huntley
p1061
I10540
sVJoe Mixon
p1062
I15528
sVHugh McKinnis
p1063
I14894
sVCadillac Williams
p1064
I24008
sVMarlon Mack
p1065
I13799
sVJimmy Jordan
p1066
I11752
sVKahlil Bell
p1067
I1459
sVTed McKnight 
p1068
I14904
sVDoug DuBose
p1069
I5990
sVDarrin Reaves
p1070
I18286
sVCyrus Gray
p1071
I8302
sVKenny King
p1072
I12296
sVLeonard Henry 
p1073
I9657
sVJohn Tarver
p1074
I21790
sVAaron Brown
p1075
I2536
sVHorace Belton
p1076
I1502
sVMaurice Morris 
p1077
I15842
sVDon Woods
p1078
I24632
sVLamar Miller
p1079
I15340
sVRicky Watters
p1080
I23431
sVDonald Brown
p1081
I2605
sVJerome Smith
p1082
I20654
sVJim Strong
p1083
I21461
sVTauren Poole
p1084
I17776
sVJacquizz Rodgers 
p1085
I18955
sVTravis Prentice
p1086
I17906
sVMazio Royster
p1087
I19188
sVPo James
p1088
I10918
sVFrank Gore
p1089
I8152
sVBill Ring
p1090
I18711
sVDwight Lee 
p1091
I13091
sVReggie Brooks
p1092
I2508
sVLavale Thomas
p1093
I22084
sVLes Shy
p1094
I20207
sVRandy Jordan
p1095
I11761
sVChad Simpson
p1096
I20321
sVGeorge Wonsley
p1097
I24584
sVThurman Thomas
p1098
I22128
sVJack Deloplaine
p1099
I5458
sVLouis Jackson
p1100
I10804
sVMike Davis
p1101
I5268
sVCedric Benson
p1102
I1557
sVHub Lindsey
p1103
I13379
sVCharlie White
p1104
I23746
sVBobby Anderson 
p1105
I416
sVTony Mumford
p1106
I16018
sVJacob Hester
p1107
I9733
sVLee Weigel
p1108
I23542
sVArthur Green
p1109
I8343
sVJessie Clark
p1110
I3976
sVCharlie Leigh
p1111
I13154
sVDante Brown
p1112
I2590
sVJamal Robertson
p1113
I18818
sVHarmon Wages
p1114
I23029
sVPaul White
p1115
I23800
sVMajor Everett
p1116
I6614
sVTroy Hambrick
p1117
I8865
sVRoger Graham
p1118
I8230
sVJoe Morris 
p1119
I15836
sVTony Jeffery
p1120
I11013
sVDeAngelo Williams
p1121
I24043
sVJavarris James
p1122
I10906
sVKen Talton
p1123
I21753
sVRyan Williams
p1124
I24235
sVBrock Bolen
p1125
I1963
sVMacArthur Lane
p1126
I12844
sVLance Dunbar
p1127
I6062
sVMark Bailey
p1128
I861
sVEddie Hunter
p1129
I10514
sVRufus Crawford 
p1130
I4747
sVDerrick Henry 
p1131
I9653
sVTrevor Cobb
p1132
I4134
sVMatthew Tucker
p1133
I22569
sVJoe Dawkins
p1134
I5345
sVJohn Ivlow
p1135
I10699
sVJay Ajayi
p1136
I160
sVTom Newton
p1137
I16370
sVTerrence Magee
p1138
I13860
sVDerrick Wimbush
p1139
I24446
sVRobert Green
p1140
I8397
sVBob Gresham
p1141
I8487
sVArtose Pinner
p1142
I17637
sVJim Kitts
p1143
I12371
sVRandall Morris 
p1144
I15846
sVMel Carver
p1145
I3615
sVChris Carson
p1146
I3536
sVRon Dayne
p1147
I5377
sVBob Cappadona
p1148
I3399
sVBob Torrey
p1149
I22435
sVMike Voight
p1150
I22981
sVHubie Oliver
p1151
I16800
sVAndy Johnson 
p1152
I11158
sVAlex Haynes
p1153
I9464
sVJohn Clay
p1154
I4035
sVGreg Boone 
p1155
I2011
sVDavid Johnson
p1156
I11230
sVCharlie Bryant
p1157
I2841
sVJason Burns
p1158
I3048
sVHenry Hynoski
p1159
I10594
sVJerry Hill
p1160
I9857
sVJimmy Sidle
p1161
I20213
sVDamien Williams
p1162
I24031
sVEdwin Baker
p1163
I890
sVAlfred Anderson 
p1164
I403
sVRobert Kelley 
p1165
I12046
sVHokie Gajan 
p1166
I7522
sVStorm Johnson
p1167
I11425
sVAllen Pinkett
p1168
I17630
sVGlynn Harrison
p1169
I9256
sVChad Stark
p1170
I21127
sVJim Van Wagner 
p1171
I22833
sVBrian Piccolo
p1172
I17571
sVDave Meggett
p1173
I15073
sVCarl Painter
p1174
I17001
sVMike Panepinto
p1175
I17045
sVRodney Carter
p1176
I3592
sVKenny Watson
p1177
I23411
sVRodney Culver
p1178
I4906
sVDoug Goodwin
p1179
I8115
sVKenjon Barner
p1180
I1081
sVJordan Todman
p1181
I22362
sVTony Green
p1182
I8406
sVChester Willis
p1183
I24308
sVRonnie Wingo
p1184
I24473
sVShane Vereen
p1185
I22910
sVJ.R. Redmond
p1186
I18317
sVTerry Miller
p1187
I15367
sVCarey Davis
p1188
I5180
sVVan Williams
p1189
I24280
sVDarius Walker
p1190
I23082
sVHaskel Stanback
p1191
I21095
sVCalvin Jones
p1192
I11523
sVRussell Hansbrough
p1193
I8970
sVRonnie Hillman
p1194
I9912
sVTerrell Fletcher
p1195
I7027
sVKenneth Farrow
p1196
I6717
sVDoug Chapman
p1197
I3760
sVEarl Beecham
p1198
I1404
sVSherman Williams
p1199
I24244
sVJoe Chetti
p1200
I3831
sVDave Atkins
p1201
I702
sVDerrick Fenner
p1202
I6812
sVLydell Carr
p1203
I3497
sVAdam Walker
p1204
I23069
sVArnold Mickens
p1205
I15211
sVBrandon Miree
p1206
I15448
sVTommie Smiley 
p1207
I20502
sVJon Vaughn
p1208
I22879
sVAnthony Thompson
p1209
I22147
sVRobert Chancey
p1210
I3742
sVJim Walsh
p1211
I23187
sVAndrew Jones 
p1212
I11493
sVJim Lindsey
p1213
I13380
sVMel Farr
p1214
I6700
sVCorey Walker
p1215
I23081
sVLenvil Elliott
p1216
I6384
sVClem Turner
p1217
I22632
sVEric Shelton
p1218
I20082
sVRoger Vick
p1219
I22932
sVJarvis Redwine
p1220
I18321
sVBruce Maxwell
p1221
I14353
sVDee Brown
p1222
I2597
sVSheldon Canley
p1223
I3373
sVTed Brown
p1224
I2739
sVGill Fenerty
p1225
I6808
sVJack Rizzo
p1226
I18749
sVTony Galbreath
p1227
I7526
sVLeon Crosswhite
p1228
I4837
sVAndre' Anderson 
p1229
I404
sVPaul Hofer
p1230
I10005
sVJohn Settle
p1231
I19953
sVJerry Mays
p1232
I14408
sVLorenzo White
p1233
I23789
sVJohnnie Wright
p1234
I24739
sVDavid Overstreet
p1235
I16924
sVCraig Walendy
p1236
I23065
sVFran Lynch 
p1237
I13745
sVAlbert Young
p1238
I24865
sVEric Kettani
p1239
I12171
sVReggie Bush
p1240
I3116
sVEd Jenkins
p1241
I11040
sVI.M. Hipp
p1242
I9944
sVBuford McGee
p1243
I14752
sVRobert Douglas
p1244
I5883
sVDave Kopay
p1245
I12517
sVAnthony Allen
p1246
I269
sVLarry Stegent
p1247
I21184
sVBill Thomas
p1248
I22003
sVBen Norman
p1249
I16504
sVLarry Krause
p1250
I12610
sVBlake Ezor
p1251
I6625
sVNewton Williams
p1252
I24193
sVRod Smart
p1253
I20489
sVDavid Fluellen
p1254
I7069
sVJames McAlister
p1255
I14433
sVOnterio McCalebb
p1256
I14468
sVHorace Ivory
p1257
I10702
sVTim Lester
p1258
I13218
sVShaun Chapas
p1259
I3758
sVLarry Brown
p1260
I2667
sVRod Phillips
p1261
I17556
sVMarcus Mason
p1262
I14225
sVGeorge Winn
p1263
I24484
sVCierre Wood
p1264
I24591
sVA.D. Whitfield
p1265
I23839
sVAndy Reid
p1266
I18418
sVMaurice Hicks
p1267
I9781
sVDion Lewis
p1268
I13269
sVShyrone Stith
p1269
I21332
sVJazz Jackson
p1270
I10780
sVHerb Lusk
p1271
I13716
sVRobert Weathers
p1272
I23467
sVJesse Chatman
p1273
I3790
sVTony Brooks
p1274
I2514
sVPaul Perkins 
p1275
I17382
sVDerrick Douglas
p1276
I5867
sVClifton Dawson
p1277
I5353
sVAdrian Peterson
p1278
I17463
sVSteve Morse
p1279
I15884
sVAndrew Jackson
p1280
I10722
sVJoe Washington
p1281
I23340
sVRickey Isom
p1282
I10687
sVRod Smith
p1283
I20760
sVDanny Bradley
p1284
I2209
sVKi-Jana Carter
p1285
I3582
sVVai Sikahema
p1286
I20236
sVWarrick Dunn
p1287
I6102
sVBill Tucker
p1288
I22561
sVDeon Strother
p1289
I21470
sVRobb Riddick
p1290
I18653
sVZachary Dixon
p1291
I5724
sVSammy Johnson
p1292
I11415
sVChuck Levy
p1293
I13241
sVDon Heater
p1294
I9507
sVAhmard Hall
p1295
I8780
sVDel Rodgers 
p1296
I18952
sVCedric Minter
p1297
I15436
sVMike Crawford 
p1298
I4743
sVBrandon Bolden
p1299
I1954
sVGary Lewis
p1300
I13275
sVTeddy Washington 
p1301
I23363
sVNick Goings
p1302
I8026
sVFrank Cephous
p1303
I3713
sVCleveland Franklin
p1304
I7282
sVHarold Shaw
p1305
I20029
sVTony Fisher
p1306
I6952
sVAlex Green
p1307
I8341
sVTavian Banks
p1308
I1007
sVVince Williams
p1309
I24282
sVJ.D. Runnels
p1310
I19244
sVTerry Erwin
p1311
I6524
sVCameron Artis-Payne
p1312
I656
sVMike Franckowiak
p1313
I7265
sVRoger Craig
p1314
I4714
sVDerrick Clark
p1315
I3958
sVLarry Croom
p1316
I4818
sVPat Franklin
p1317
I7294
sVPierre Thomas
p1318
I22104
sVRonald Moore
p1319
I15733
sVCalvin Murray
p1320
I16084
sVJarmar Julien
p1321
I11810
sVLamar Smith
p1322
I20690
sVJohnny Shepherd
p1323
I20098
sVLeonard Weaver
p1324
I23482
sVKolby Smith
p1325
I20688
sVEarl Carr
p1326
I3489
sVDwayne Crutchfield
p1327
I4881
sVCarey Bender
p1328
I1507
sVDarren Lewis
p1329
I13261
sVChris Warren
p1330
I23284
sVTy Douthard
p1331
I5889
sVJames Betterson
p1332
I1677
sVThomas Jones
p1333
I11713
sVRobert Holcombe
p1334
I10042
sVDetron Smith
p1335
I20585
sVKen Willard
p1336
I23966
sVGeorge Layne
p1337
I13020
sVTashard Choice
p1338
I3862
sVAllen Rice
p1339
I18557
sVScott Stauch
p1340
I21156
sVKevin Mack
p1341
I13796
sVClaxton Welch
p1342
I23566
sVJimmie Jones
p1343
I11622
sVPreston Ridlehuber
p1344
I18662
sVJustin Hamilton
p1345
I8883
sVEvan Royster
p1346
I19187
sVDeShaun Foster 
p1347
I7178
sVTheotis Brown
p1348
I2741
sVAlonzo Harris
p1349
I9124
sVKerry Goode
p1350
I8082
sVBo Jackson
p1351
I10731
sVRay McDonald
p1352
I14680
sVMarcus Wilson
p1353
I24398
sVAaron Jones
p1354
I11487
sVTerry Butler
p1355
I3176
sVRupert Grant
p1356
I8277
sVOnterrio Smith
p1357
I20729
sVJerald Moore
p1358
I15689
sVJeff Powell
p1359
I17867
sVJeremy Hill
p1360
I9856
sVTim Worley
p1361
I24688
sVLeSean McCoy
p1362
I14591
sVTevin Coleman
p1363
I4263
sVRobert Wilson
p1364
I24418
sVPaul Palmer
p1365
I17031
sVFrank Middleton
p1366
I15223
sVShaun Draughn
p1367
I5943
sVLakei Heimuli
p1368
I9552
sVTim Manoa
p1369
I13993
sVTony Dollinger
p1370
I5766
sVMoses Denson
p1371
I5515
sVJim Williams
p1372
I24118
sVKerry Carter
p1373
I3580
sVFelix Jones
p1374
I11580
sVChauncey Washington
p1375
I23314
sVHerb Mul-Key
p1376
I15993
sVJonathan Dwyer
p1377
I6145
sVRay Jackson
p1378
I10823
sVTimmy Brown
p1379
I2744
sVMike Cloud 
p1380
I4105
sVTrent Richardson 
p1381
I18630
sVRobert Turner
p1382
I22665
sVNapoleon Kaufman 
p1383
I11953
sVJames Starks
p1384
I21133
sVReggie Rivers
p1385
I18746
sVOwen Marecic
p1386
I14038
sVSkip Hicks
p1387
I9786
sVJimmy Edwards
p1388
I6275
sVKeith Toston
p1389
I22440
sVRonnie Blye
p1390
I1903
sVDave Farmer
p1391
I6687
sVChris Howard
p1392
I10282
sVLaBrandon Toefield
p1393
I22364
sVBenJarvus Green-Ellis
p1394
I8417
sVMario Bates
p1395
I1248
sVBrandon Wegher
p1396
I23538
sVJamaal Williams
p1397
I24100
sVClarence Davis
p1398
I5191
sVGeorge Farmer
p1399
I6690
sVTodd Gurley
p1400
I8657
sVJoe Carter
p1401
I3576
sVMaurice Turner
p1402
I22655
sVPeyton Hillis
p1403
I9910
sVJoe Auer
p1404
I731
sVJason Snelling 
p1405
I20844
sVGeorge Swarn
p1406
I21640
sVSteve Rogers
p1407
I19012
sVArmond Smith
p1408
I20522
sVDewell Brewer
p1409
I2353
sVJack Wender
p1410
I23611
sVAutry Denson
p1411
I5512
sVJonathan Linton
p1412
I13402
sVAltie Taylor
p1413
I21824
sVWayne Gallman
p1414
I7545
sVJason Davis
p1415
I5239
sVDimitri Nance
p1416
I16175
sVLynn Cain
p1417
I3247
sVSteve Owens
p1418
I16959
sVElvis Peacock
p1419
I17273
sVJohnny Johnson
p1420
I11314
sVMike Faulkerson
p1421
I6730
sVPete Van Valkenberg
p1422
I22832
sVStan Mitchell 
p1423
I15514
sVGary Allen
p1424
I296
sVBrett Wilson
p1425
I24346
sVPeyton Barber
p1426
I1040
sVCarl Woods
p1427
I24629
sVHenry Dyer
p1428
I6153
sVIvy Joe Hunter
p1429
I10516
sVSean Bennett
p1430
I1551
sVTrey Edmunds
p1431
I6249
sVStanley Havili
p1432
I9382
sVLatavius Murray
p1433
I16093
sVJoseph Randle 
p1434
I18195
sVC.J. Spiller
p1435
I21004
sVEric Cobble
p1436
I4136
sVDuJuan Harris
p1437
I9159
sVChris Perry 
p1438
I17404
sVShelley Poole
p1439
I17774
sVBruce King
p1440
I12269
sVMichael Pittman
p1441
I17662
sVDerrick Thomas
p1442
I22030
sVTre Madden
p1443
I13833
sVRobert Hughes
p1444
I10430
sVAlfred Blue
p1445
I1894
sVJames Davis
p1446
I5237
sVElgin Davis
p1447
I5212
sVRobert Holmes
p1448
I10136
sVTerrance Ganaway
p1449
I7567
sVTim Jessie
p1450
I11113
sVHenry Odom
p1451
I16714
sVMichael Clemons
p1452
I4080
sVLeroy Kelly
p1453
I12070
sVHenry Jones
p1454
I11597
sVJonathan Williams
p1455
I24135
sVJamal Willis
p1456
I24311
sVEric Torkelson
p1457
I22432
sVJames Develin
p1458
I5565
sVChris Ogbonnaya
p1459
I16736
sVNatrone Means
p1460
I15055
sVRick Kane
p1461
I11887
sVStump Mitchell 
p1462
I15515
sVWillard Reaves
p1463
I18289
sVOliver Ross
p1464
I19124
sVT.J. Duckett
p1465
I5998
sVFred Taylor
p1466
I21850
sVFozzy Whittaker
p1467
I23860
sVMontell Owens
p1468
I16952
sVVickey Ray Anderson 
p1469
I497
sVDorsey Levens 
p1470
I13230
sVWes Ours
p1471
I16919
sVCalvin Hill
p1472
I9827
sVRobert Miller
p1473
I15358
sVTed Alflen
p1474
I249
sVVince Kendrick
p1475
I12104
sVDonnie Joe Morris 
p1476
I15826
sVDickie Post
p1477
I17829
sVJonathan Grimes
p1478
I8554
sVKareem Huggins
p1479
I10406
sVAl Wolden
p1480
I24560
sVMike Hagen
p1481
I8727
sVFrank Aschenbrenner
p1482
I666
sVDavid Green
p1483
I8358
sVLarry Heater
p1484
I9508
sVJerome Bettis
p1485
I1679
sVJoey Harris
p1486
I9184
sVBen Garry
p1487
I7661
sVLarry Kinnebrew
p1488
I12319
sVSammie Smith
p1489
I20771
sVJewel Hampton 
p1490
I8923
sVBrent McClanahan
p1491
I14523
sVDeji Karim
p1492
I11909
sVBrandon Bennett
p1493
I1531
sVKarlos Williams 
p1494
I24142
sVFrank Bianchini
p1495
I1694
sVRicky Blake
p1496
I1842
sVKenny Flowers
p1497
I7046
sVKaRon Coleman
p1498
I4247
sVBrandon Jacobs
p1499
I10861
sVJames Primus
p1500
I17959
sVKirk Jones
p1501
I11645
sVStefan Logan
p1502
I13506
sVLeShun Daniels
p1503
I5069
sVBen Gay
p1504
I7713
sVTravis Reece
p1505
I18329
sVBarty Smith
p1506
I20526
sVJoe Burke
p1507
I3000
sVBaron Batch
p1508
I1239
sVTerry Richardson 
p1509
I18627
sVAlonzo Williams
p1510
I23979
sVLarry Johnson
p1511
I11337
sVZurlon Tipton
p1512
I22339
sVDennis Smith
p1513
I20582
sVR.C. Gamble
p1514
I7560
sVReagan Maui'a
p1515
I14335
sVTerrell Watson
p1516
I23419
sVBrock Olivo
p1517
I16810
sVAnthony Toney
p1518
I22409
sVHerman Heard
p1519
I9501
sVWilliam Howard
p1520
I10311
sVKen Jenkins
p1521
I11056
sVFred McAfee
p1522
I14427
sVRobert Alexander
p1523
I238
sVErric Pegram
p1524
I17318
sVPaul Frazier
p1525
I7326
sVRashard Mendenhall
p1526
I15112
sVBert Piggott
p1527
I17608
sVE.J. Jones
p1528
I11568
sVTony Hollings
p1529
I10082
sVCannonball Butler
p1530
I3143
sVDick Davis
p1531
I5202
sVRay Crouse
p1532
I4844
sVBob Gladieux
p1533
I7936
sVJohnny Musso
p1534
I16111
sVOscar Gray
p1535
I8320
sVJames Allen
p1536
I305
sVDerek Brown
p1537
I2601
sVD.J. Foster 
p1538
I7176
sVClarence Hawkins
p1539
I9395
sVGary Russell
p1540
I19278
sVKyle Eckel
p1541
I6222
sVTerrance West 
p1542
I23658
sVGary Ellerson
p1543
I6365
sVVince Clements
p1544
I4073
sVKeith Henderson
p1545
I9599
sVArian Foster 
p1546
I7173
sVMorris LaGrand
p1547
I12771
sVSultan McCullough
p1548
I14625
sVRon Wolfley
p1549
I24570
sVJohn Griffin
p1550
I8512
sVMark Konecny
p1551
I12501
sVSpencer George
p1552
I7770
sVMatt Snell
p1553
I20842
sVBooker Moore
p1554
I15650
sVNate Simpson
p1555
I20331
sVDalton Hilliard
p1556
I9904
sVJoe Mickles
p1557
I15216
sVTodd McNair
p1558
I14972
sVLars Tate
p1559
I21801
sVChris Taylor
p1560
I21834
sVGiovani Bernard
p1561
I1603
sVDan Herron
p1562
I9719
sVReuben Droughns
p1563
I5967
sVJesse Myles
p1564
I16143
sVKantroy Barber
p1565
I1032
sVYonel Jourdain
p1566
I11790
sVLaDainian Tomlinson
p1567
I22399
sVHarry Sydney
p1568
I21688
sVRafael Cooper
p1569
I4521
sVTroy Fleming
p1570
I7008
sVTucker Frederickson
p1571
I7334
sVLaRue Harrington
p1572
I9120
sVBrandon Jackson
p1573
I10738
sVBurnie Legette
p1574
I13137
sVMalcolm Brown 
p1575
I2677
sVGlen Coffee
p1576
I4168
sVRay Wallace
p1577
I23159
sVMichael Blair
p1578
I1833
sVSteve Harris
p1579
I9233
sVArmando Allen
p1580
I271
sVDon Nottingham 
p1581
I16557
sVEddie Lee Ivery
p1582
I10697
sVTaiwan Jones
p1583
I11707
sVMike Esposito
p1584
I6532
sVBam Morris 
p1585
I15819
sVCarl Fair
p1586
I6642
sVMel Bratton
p1587
I2292
sVScott Dierking
p1588
I5633
sVKenneth Davis 
p1589
I5257
sVHeath Sherman 
p1590
I20113
sVDoug Cunningham
p1591
I4923
sVRandy Minniear
p1592
I15426
sVBrandon Saine
p1593
I19372
sVThomas Lott
p1594
I13597
sVErnie Wheelwright
p1595
I23719
sVRichard Williams
p1596
I24217
sVNajeh Davenport 
p1597
I5127
sVRalph Nelson 
p1598
I16285
sVBarry Foster 
p1599
I7174
sVWillie Parker
p1600
I17116
sVBill Jones
p1601
I11503
sVDominic Rhodes
p1602
I18540
sVJames Brooks
p1603
I2497
sVGreg Allen
p1604
I300
sVJay Graham
p1605
I8218
sVBrian Lattimore
p1606
I12950
sVJoe McIntosh
p1607
I14842
sVKendall Gaskins
p1608
I7678
sVNathan Wonsley
p1609
I24585
sVNaufahu Tahi
p1610
I21730
sVKenneth Darby
p1611
I5090
sVTony Collins
p1612
I4334
sVLe'Veon Bell
p1613
I1465
sVLeonard Fournette 
p1614
I7203
sVChris Jennings
p1615
I11075
sVDave Hampton 
p1616
I8921
sVZac Stacy
p1617
I21063
sVMarvin Allen
p1618
I324
sVLarry Ned
p1619
I16233
sVKeith Woodside
p1620
I24653
sVMike Garrett
p1621
I7650
sVMike Collier
p1622
I4280
sVDennis Bligen
p1623
I1877
sVMike James 
p1624
I10915
sVVictor Floyd 
p1625
I7066
sVRocky Thompson
p1626
I22211
sVSelvin Young
p1627
I24916
sVWilbert Montgomery
p1628
I15619
sVOttis Anderson 
p1629
I476
sVRodney Hampton 
p1630
I8926
sVJamie Harper
p1631
I9095
sVSiran Stacy
p1632
I21062
sVAlvin Kamara
p1633
I11877
sVMax Anderson 
p1634
I471
sVVince Workman
p1635
I24686
sVAaron Green
p1636
I8338
sVBob Perryman 
p1637
I17429
sVDa'Rel Scott
p1638
I19789
sVJohn Skibinski 
p1639
I20413
sVRobert Smith
p1640
I20757
sVMike Hull
p1641
I10440
sVTyrone Montgomery
p1642
I15618
sVElton Veals
p1643
I22885
sVJohn Kamana
p1644
I11875
sVRob Lytle
p1645
I13769
sVRon Rivers
p1646
I18747
sVBoyce Green
p1647
I8346
sVHenry Matthews
p1648
I14307
sVKen Callicutt
p1649
I3289
sVJim Kiick 
p1650
I12204
sVNeal Anderson 
p1651
I474
sVDon Overton
p1652
I16926
sVJoseph Addai
p1653
I108
sVClayton Heath
p1654
I9510
sVBenny Cunningham
p1655
I4919
sVMike Oliphant
p1656
I16789
sVJuwan Thompson
p1657
I22194
sVAllen Harvin
p1658
I9338
sVGordon Bell
p1659
I1451
sVDon McCauley
p1660
I14504
sVClint Jones
p1661
I11537
sVBilly Pritchett
p1662
I17976
sVTerry Cole
p1663
I4216
sVTrung Canidate
p1664
I3372
sVTyrell Sutton
p1665
I21613
sVNuu Faaola
p1666
I6626
sVWalter Williams
p1667
I24287
sVDe'Angelo Henderson
p1668
I9588
sVCharlie Smith
p1669
I20557
sVBob McCall
p1670
I14469
sVClifton Smith
p1671
I20564
sVDavin Meggett
p1672
I15074
sVDerrick Cullors
p1673
I4898
sVTerry Robiskie
p1674
I18919
sVRobert Staten
p1675
I21151
sVStacy Tutt
p1676
I22685
sVRon Lee 
p1677
I13120
sVClif Groce
p1678
I8565
sVBishop Sankey
p1679
I19486
sVHubert Ginn
p1680
I7915
sVDon McCall
p1681
I14470
sVWoody Bennett
p1682
I1555
sVBenny Malone 
p1683
I13926
sVAlvin Maxson
p1684
I14352
sVRobert Turbin
p1685
I22612
sVRyan Benjamin
p1686
I1521
sVRobert Hardy 
p1687
I9047
sVDave Romasko
p1688
I19047
sVSteve Slaton
p1689
I20446
sVTony Nathan
p1690
I16195
sVWilbur Jackson
p1691
I10855
sVPat McNeil
p1692
I14988
sVStan Winfrey
p1693
I24465
sVWillie McClendon
p1694
I14533
sVBrian Henesey
p1695
I9628
sVDarick Holmes
p1696
I10118
sVAnthony Lynn
p1697
I13756
sVAlvin Blount
p1698
I1885
sVAnthony Davis
p1699
I5154
sVAmos Zereoue
p1700
I24996
sVBubba Bean
p1701
I1336
sVJosh Parry
p1702
I17149
sVAndre Williams
p1703
I23980
sVRicky Williams
p1704
I24218
sVSteve Strachan
p1705
I21406
sVMarcus Murphy
p1706
I16063
sVJames Fenderson
p1707
I6806
sVTaquan Mizzell
p1708
I15531
sVHank Bjorklund
p1709
I1780
sVMonroe Eley
p1710
I6344
sVJohn Sterling
p1711
I21248
sVElijah Hood
p1712
I10167
sVIra Valentine
p1713
I22792
sVJoe Moore
p1714
I15692
sVReggie Harrison
p1715
I9271
sVJames Wilder
p1716
I23923
sVWard Walsh
p1717
I23189
sVMarcus Mailei
p1718
I13896
sVTom Brown
p1719
I2749
sVShonn Greene
p1720
I8436
sVDave Osborn 
p1721
I16880
sVJim Allison
p1722
I345
sVBlair Thomas
p1723
I22004
sVLarry Moriarty
p1724
I15805
sVDerrick Lassic
p1725
I12933
sVLeon Johnson
p1726
I11344
sVAnthony Mosley
p1727
I15914
sVRick Calhoun
p1728
I3274
sVMarshall Faulk
p1729
I6728
sVDon Calhoun
p1730
I3270
sVIke Forte 
p1731
I7163
sVMichael Williams
p1732
I24180
sVClarence Bailey
p1733
I845
sVJerick McKinnon 
p1734
I14897
sVMickey Zofko
p1735
I25016
sVMike Campbell 
p1736
I3346
sVJames Rouse
p1737
I19152
sVRick Badanjek
p1738
I823
sVRalph Stockemer
p1739
I21339
sVAllen Williams
p1740
I23978
sVBarry Redden
p1741
I18301
sVAlois Blackwell
p1742
I1816
sVCorey Clement
p1743
I4066
sVZach Zenner
p1744
I24990
sVKnowshon Moreno
p1745
I15773
sVJames Sims
p1746
I20347
sVChris Samuels
p1747
I19417
sVMaurice Jones-Drew
p1748
I11732
sVOtis Armstrong 
p1749
I624
sVAmos Lawrence
p1750
I12983
sVIckey Woods
p1751
I24636
sVGaston Green
p1752
I8367
sVMichael Bennett
p1753
I1545
sVRabih Abdullah
p1754
I14
sVPerry Lee Dunn
p1755
I6099
sVFreddie Parker
p1756
I17088
sVTony Baker
p1757
I921
sVWillis McGahee
p1758
I14741
sVBilly Taylor
p1759
I21826
sVDavid Sims
p1760
I20340
sVB.J. Sams
p1761
I19408
sVHank Bauer
p1762
I1278
sVAndy Hopkins
p1763
I10189
sVCorey Dillon
p1764
I5655
sVJamel White
p1765
I23772
sVDoug Paschal
p1766
I17164
sVChase Reynolds
p1767
I18506
sVBarry Pryor
p1768
I18013
sVJerry Latin
p1769
I12945
sVDave Smith
p1770
I20577
sVDave Williams
p1771
I24039
sVMike Anderson 
p1772
I473
sVSpark Clark
p1773
I4001
sVDerrick Blaylock
p1774
I1862
sVGreg Taylor
p1775
I21852
sVGeorge Amundson
p1776
I394
sVBrian Leonard
p1777
I13192
sVGene Lang
p1778
I12852
sVBruce Perry 
p1779
I17403
sVD'Onta Foreman
p1780
I7144
sVAustin Ekeler
p1781
I6329
sVDeMarco Murray
p1782
I16086
sVTre Mason
p1783
I14229
sVJoe McCall
p1784
I14472
sVLawrence Ricks
p1785
I18648
sVHorace King
p1786
I12290
sVBobby Howard
p1787
I10278
sVVincent Alexander
p1788
I245
sVKendall Hunter
p1789
I10524
sVBill Olds
p1790
I16782
sVDan Reeves
p1791
I18391
sVJohn Tagliaferri
p1792
I21729
sVRick Parros
p1793
I17147
sVMatt Breida
p1794
I2330
sVRandy Baldwin
p1795
I948
sVIrving Spikes
p1796
I21000
sVMarcus Thomas
p1797
I22090
sVDuce Staley
p1798
I21077
sVTravaris Cadet
p1799
I3227
sVLarry Mason
p1800
I14223
sVDeuce McAllister
p1801
I14435
sVMichael Turner
p1802
I22656
sVTony Reed
p1803
I18367
sVBuddy Hardeman
p1804
I9008
sVRich Thomaselli
p1805
I22137
sVThomas Smith
p1806
I20793
sVAndre Hardy 
p1807
I9027
sVCurvin Richards
p1808
I18580
sVDennis Lundy
p1809
I13703
sVChris Brewer
p1810
I2352
sVMarquis Weeks
p1811
I23531
sVEd Podolak
p1812
I17715
sVJon Francis 
p1813
I7255
sVTerry Kirby
p1814
I12331
sVClarence Williams
p1815
I24021
sVBob Christian
p1816
I3876
sVFrank Moreau
p1817
I15766
sVChris Johnson 
p1818
I11208
sVLarry Emery
p1819
I6459
sVCharles Evans
p1820
I6562
sVOlandis Gary
p1821
I7668
sVCharles Sims
p1822
I20338
sVJon Witman
p1823
I24538
sVWalter Payton
p1824
I17270
sVLarry Watkins
p1825
I23390
sVKyle Johnson
p1826
I11333
sVJames Hadnot 
p1827
I8715
sVMaurice Carthon
p1828
I3609
sVNoah Herron
p1829
I9722
sVAlex Collins
p1830
I4285
sVJoique Bell
p1831
I1457
sVBrian Mitchell 
p1832
I15467
sVPatrick Cobbs
p1833
I4139
sVMichael Wiley
p1834
I23932
sVEddie Fuller
p1835
I7435
sVThomas Clayton
p1836
I4055
sVJason Brookins
p1837
I2474
sVHarold Green
p1838
I8368
sVRashaan Salaam 
p1839
I19376
sVJ.J. Johnson
p1840
I11282
sVTravis Henry 
p1841
I9665
sVEzekiel Elliott
p1842
I6375
sVLance Ball
p1843
I955
sVWoody Thompson
p1844
I22230
sVCliff Austin
p1845
I744
sVBobby Joe Edmonds
p1846
I6244
sVCyril Pinder
p1847
I17625
sVJohnny White
p1848
I23781
sVGary Davis
p1849
I5219
sVSilas Redd
p1850
I18299
sVAndy Uram
p1851
I22761
sVFitzgerald Toussaint
p1852
I22447
sVDelvin Williams
p1853
I24045
sVNate Rivers
p1854
I18744
sVGene Moore
p1855
I15682
sVJoe Wilson
p1856
I24388
sVMario Fannin
p1857
I6669
sVGeorge Atkinson
p1858
I716
sVEstes Banks
p1859
I998
sVLonyae Miller
p1860
I15343
sVJim Nance
p1861
I16176
sVJulius Jones
p1862
I11635
sVGreg Paterra
p1863
I17187
sVGartrell Johnson
p1864
I11264
sVLorenzo Taliaferro
p1865
I21742
sVLionel Gates
p1866
I7689
sVWes Bender
p1867
I1509
sVMatt Forte 
p1868
I7164
sVDino Hall
p1869
I8805
sVTroy Davis 
p1870
I5318
sVMack Brown
p1871
I2676
sVLynell Hamilton
p1872
I8887
sVIsaiah Crowell
p1873
I4860
sVKevin Jones
p1874
I11643
sVLes Josephson
p1875
I11787
sVDerrick Ross
p1876
I19114
sVAdrian Wright
p1877
I24712
sVGeorge Jones
p1878
I11587
sVTony Taylor
p1879
I21903
sVDuane Thomas
p1880
I22037
sVFrank Harris
p1881
I9168
sVGilbert Harris
p1882
I9169
sVEric Dickerson
p1883
I5605
sVBrandon Wilds
p1884
I23924
sVButch Woolfolk
p1885
I24665
sVT.J. Yeldon
p1886
I24845
sVAndre Ellington
p1887
I6367
sVOscar Dragon
p1888
I5931
sVCharlie Evans
p1889
I6563
sVMike Guman
p1890
I8640
sVKen Zachary
p1891
I24947
sVDerrick Witherspoon
p1892
I24531
sVLamont Warren
p1893
I23293
sVKen Grandberry 
p1894
I8241
sVWillie Shelby
p1895
I20066
sVWarren Loving
p1896
I13630
sVEddie Payton
p1897
I17266
sVJames Evans
p1898
I6580
sVStan Edwards
p1899
I6291
sVJonathan Stewart
p1900
I21291
sVFrank Summers
p1901
I21575
sVEdgar Bennett
p1902
I1540
sVKen Starch
p1903
I21125
sVAlvester Alexander
p1904
I204
sVLadell Betts
p1905
I1683
sVBrian Westbrook 
p1906
I23662
sVDevante Mays
p1907
I14406
sVLaverne Smith
p1908
I20695
sVMack Herron
p1909
I9721
sVMarion Barber
p1910
I1035
sVMike Cox
p1911
I4682
sVAllen Bradford
p1912
I2196
sVChris Rainey
p1913
I18153
sVScott Lockwood
p1914
I13482
sVTravis Minor
p1915
I15433
sVKiero Small
p1916
I20483
sVCarlos Hyde
p1917
I10586
sVLorenzo Hampton 
p1918
I8925
sVBrian Hill
p1919
I9824
sVReShard Lee 
p1920
I13119
sVEddie Watson
p1921
I23404
sVClarence Harmon 
p1922
I9069
sVRicky Bell
p1923
I1477
sVScott Caldwell
p1924
I3265
sVAnthony Dixon
p1925
I5697
sVPhillip Tanner
p1926
I21771
sVCleve Wester 
p1927
I23670
sVRodney Thomas
p1928
I22116
sVMarvin Lewis
p1929
I13304
sVJustin Watson
p1930
I23410
sVKhiry Robinson
p1931
I18884
sVJeff Demps
p1932
I5477
sVSid Blanks
p1933
I1857
sVKeith Griffin
p1934
I8513
sVChad Dukes
p1935
I6042
sVTristan Davis 
p1936
I5317
sVDwayne Washington
p1937
I23329
sVMarv Hubbard
p1938
I10354
sVLarry Barnes
p1939
I1103
sVChad Levitt
p1940
I13239
sVRick Moser
p1941
I15903
sVMusa Smith
p1942
I20722
sVBuford Jordan
p1943
I11739
sVSteven Jackson
p1944
I10839
sVMike Hogan 
p1945
I10021
sVMichael Cox
p1946
I4681
s.